	.section	__TEXT,__text,regular,pure_instructions
	.build_version macos, 10, 14	sdk_version 10, 14
	.globl	__Z6Randomi             ## -- Begin function _Z6Randomi
	.p2align	4, 0x90
__Z6Randomi:                            ## @_Z6Randomi
	.cfi_startproc
## %bb.0:
	pushq	%rbp
	.cfi_def_cfa_offset 16
	.cfi_offset %rbp, -16
	movq	%rsp, %rbp
	.cfi_def_cfa_register %rbp
	subq	$16, %rsp
	xorl	%eax, %eax
	movl	%eax, %ecx
	movl	%edi, -4(%rbp)
	movq	%rcx, %rdi
	callq	_time
	movl	%eax, %edx
	movl	%edx, -8(%rbp)
	movl	-8(%rbp), %edi
	callq	_srand
	callq	_rand
	imull	-4(%rbp), %eax
	addq	$16, %rsp
	popq	%rbp
	retq
	.cfi_endproc
                                        ## -- End function
	.globl	_main                   ## -- Begin function main
	.p2align	4, 0x90
_main:                                  ## @main
Lfunc_begin0:
	.cfi_startproc
	.cfi_personality 155, ___gxx_personality_v0
	.cfi_lsda 16, Lexception0
## %bb.0:
	pushq	%rbp
	.cfi_def_cfa_offset 16
	.cfi_offset %rbp, -16
	movq	%rsp, %rbp
	.cfi_def_cfa_register %rbp
	subq	$160, %rsp
	movl	$100, %eax
	movl	%eax, %esi
	movl	$0, -4(%rbp)
	leaq	-32(%rbp), %rdi
	callq	__ZNSt3__16vectorIiNS_9allocatorIiEEEC1Em
	leaq	-32(%rbp), %rsi
	movq	%rsi, -40(%rbp)
	movq	-40(%rbp), %rdi
	callq	__ZNSt3__16vectorIiNS_9allocatorIiEEE5beginEv
	movq	%rax, -48(%rbp)
	movq	-40(%rbp), %rdi
	callq	__ZNSt3__16vectorIiNS_9allocatorIiEEE3endEv
	movq	%rax, -56(%rbp)
LBB1_1:                                 ## =>This Inner Loop Header: Depth=1
	leaq	-48(%rbp), %rdi
	leaq	-56(%rbp), %rsi
	callq	__ZNSt3__1neIPiEEbRKNS_11__wrap_iterIT_EES6_
	testb	$1, %al
	jne	LBB1_2
	jmp	LBB1_6
LBB1_2:                                 ##   in Loop: Header=BB1_1 Depth=1
	leaq	-48(%rbp), %rdi
	callq	__ZNKSt3__111__wrap_iterIPiEdeEv
	movl	(%rax), %ecx
	movl	%ecx, -60(%rbp)
Ltmp6:
	movl	$10000, %edi            ## imm = 0x2710
	callq	__Z6Randomi
Ltmp7:
	movl	%eax, -112(%rbp)        ## 4-byte Spill
	jmp	LBB1_3
LBB1_3:                                 ##   in Loop: Header=BB1_1 Depth=1
	movl	-112(%rbp), %eax        ## 4-byte Reload
	movl	%eax, -60(%rbp)
## %bb.4:                               ##   in Loop: Header=BB1_1 Depth=1
	leaq	-48(%rbp), %rdi
	callq	__ZNSt3__111__wrap_iterIPiEppEv
	movq	%rax, -120(%rbp)        ## 8-byte Spill
	jmp	LBB1_1
LBB1_5:
Ltmp8:
	movl	%edx, %ecx
	movq	%rax, -72(%rbp)
	movl	%ecx, -76(%rbp)
	leaq	-32(%rbp), %rdi
	callq	__ZNSt3__16vectorIiNS_9allocatorIiEEED1Ev
	jmp	LBB1_14
LBB1_6:
	leaq	-32(%rbp), %rdi
	callq	__ZNKSt3__16vectorIiNS_9allocatorIiEEE4sizeEv
Ltmp0:
	movq	__ZNSt3__14coutE@GOTPCREL(%rip), %rdi
	movq	%rax, %rsi
	callq	__ZNSt3__113basic_ostreamIcNS_11char_traitsIcEEElsEm
Ltmp1:
	movq	%rax, -128(%rbp)        ## 8-byte Spill
	jmp	LBB1_7
LBB1_7:
	leaq	-32(%rbp), %rax
	movq	%rax, -88(%rbp)
	movq	-88(%rbp), %rdi
	callq	__ZNSt3__16vectorIiNS_9allocatorIiEEE5beginEv
	movq	%rax, -96(%rbp)
	movq	-88(%rbp), %rdi
	callq	__ZNSt3__16vectorIiNS_9allocatorIiEEE3endEv
	movq	%rax, -104(%rbp)
LBB1_8:                                 ## =>This Inner Loop Header: Depth=1
	leaq	-96(%rbp), %rdi
	leaq	-104(%rbp), %rsi
	callq	__ZNSt3__1neIPiEEbRKNS_11__wrap_iterIT_EES6_
	testb	$1, %al
	jne	LBB1_9
	jmp	LBB1_13
LBB1_9:                                 ##   in Loop: Header=BB1_8 Depth=1
	leaq	-96(%rbp), %rdi
	callq	__ZNKSt3__111__wrap_iterIPiEdeEv
	movl	(%rax), %ecx
	movl	%ecx, -108(%rbp)
	movl	-108(%rbp), %esi
Ltmp2:
	movq	__ZNSt3__14coutE@GOTPCREL(%rip), %rdi
	callq	__ZNSt3__113basic_ostreamIcNS_11char_traitsIcEEElsEi
Ltmp3:
	movq	%rax, -136(%rbp)        ## 8-byte Spill
	jmp	LBB1_10
LBB1_10:                                ##   in Loop: Header=BB1_8 Depth=1
Ltmp4:
	leaq	__ZNSt3__1L4endlIcNS_11char_traitsIcEEEERNS_13basic_ostreamIT_T0_EES7_(%rip), %rsi
	movq	-136(%rbp), %rdi        ## 8-byte Reload
	callq	__ZNSt3__113basic_ostreamIcNS_11char_traitsIcEEElsEPFRS3_S4_E
Ltmp5:
	movq	%rax, -144(%rbp)        ## 8-byte Spill
	jmp	LBB1_11
LBB1_11:                                ##   in Loop: Header=BB1_8 Depth=1
	jmp	LBB1_12
LBB1_12:                                ##   in Loop: Header=BB1_8 Depth=1
	leaq	-96(%rbp), %rdi
	callq	__ZNSt3__111__wrap_iterIPiEppEv
	movq	%rax, -152(%rbp)        ## 8-byte Spill
	jmp	LBB1_8
LBB1_13:
	leaq	-32(%rbp), %rdi
	callq	__ZNSt3__16vectorIiNS_9allocatorIiEEED1Ev
	movl	-4(%rbp), %eax
	addq	$160, %rsp
	popq	%rbp
	retq
LBB1_14:
	movq	-72(%rbp), %rdi
	callq	__Unwind_Resume
	ud2
Lfunc_end0:
	.cfi_endproc
	.section	__TEXT,__gcc_except_tab
	.p2align	2
GCC_except_table1:
Lexception0:
	.byte	255                     ## @LPStart Encoding = omit
	.byte	255                     ## @TType Encoding = omit
	.byte	1                       ## Call site Encoding = uleb128
	.uleb128 Lcst_end0-Lcst_begin0
Lcst_begin0:
	.uleb128 Lfunc_begin0-Lfunc_begin0 ## >> Call Site 1 <<
	.uleb128 Ltmp6-Lfunc_begin0     ##   Call between Lfunc_begin0 and Ltmp6
	.byte	0                       ##     has no landing pad
	.byte	0                       ##   On action: cleanup
	.uleb128 Ltmp6-Lfunc_begin0     ## >> Call Site 2 <<
	.uleb128 Ltmp5-Ltmp6            ##   Call between Ltmp6 and Ltmp5
	.uleb128 Ltmp8-Lfunc_begin0     ##     jumps to Ltmp8
	.byte	0                       ##   On action: cleanup
	.uleb128 Ltmp5-Lfunc_begin0     ## >> Call Site 3 <<
	.uleb128 Lfunc_end0-Ltmp5       ##   Call between Ltmp5 and Lfunc_end0
	.byte	0                       ##     has no landing pad
	.byte	0                       ##   On action: cleanup
Lcst_end0:
	.p2align	2
                                        ## -- End function
	.section	__TEXT,__text,regular,pure_instructions
	.globl	__ZNSt3__16vectorIiNS_9allocatorIiEEEC1Em ## -- Begin function _ZNSt3__16vectorIiNS_9allocatorIiEEEC1Em
	.weak_def_can_be_hidden	__ZNSt3__16vectorIiNS_9allocatorIiEEEC1Em
	.p2align	4, 0x90
__ZNSt3__16vectorIiNS_9allocatorIiEEEC1Em: ## @_ZNSt3__16vectorIiNS_9allocatorIiEEEC1Em
	.cfi_startproc
## %bb.0:
	pushq	%rbp
	.cfi_def_cfa_offset 16
	.cfi_offset %rbp, -16
	movq	%rsp, %rbp
	.cfi_def_cfa_register %rbp
	subq	$16, %rsp
	movq	%rdi, -8(%rbp)
	movq	%rsi, -16(%rbp)
	movq	-8(%rbp), %rdi
	movq	-16(%rbp), %rsi
	callq	__ZNSt3__16vectorIiNS_9allocatorIiEEEC2Em
	addq	$16, %rsp
	popq	%rbp
	retq
	.cfi_endproc
                                        ## -- End function
	.p2align	4, 0x90         ## -- Begin function _ZNSt3__16vectorIiNS_9allocatorIiEEE5beginEv
__ZNSt3__16vectorIiNS_9allocatorIiEEE5beginEv: ## @_ZNSt3__16vectorIiNS_9allocatorIiEEE5beginEv
	.cfi_startproc
## %bb.0:
	pushq	%rbp
	.cfi_def_cfa_offset 16
	.cfi_offset %rbp, -16
	movq	%rsp, %rbp
	.cfi_def_cfa_register %rbp
	subq	$16, %rsp
	movq	%rdi, -16(%rbp)
	movq	-16(%rbp), %rdi
	movq	(%rdi), %rsi
	callq	__ZNSt3__16vectorIiNS_9allocatorIiEEE11__make_iterEPi
	movq	%rax, -8(%rbp)
	movq	-8(%rbp), %rax
	addq	$16, %rsp
	popq	%rbp
	retq
	.cfi_endproc
                                        ## -- End function
	.p2align	4, 0x90         ## -- Begin function _ZNSt3__16vectorIiNS_9allocatorIiEEE3endEv
__ZNSt3__16vectorIiNS_9allocatorIiEEE3endEv: ## @_ZNSt3__16vectorIiNS_9allocatorIiEEE3endEv
	.cfi_startproc
## %bb.0:
	pushq	%rbp
	.cfi_def_cfa_offset 16
	.cfi_offset %rbp, -16
	movq	%rsp, %rbp
	.cfi_def_cfa_register %rbp
	subq	$16, %rsp
	movq	%rdi, -16(%rbp)
	movq	-16(%rbp), %rdi
	movq	8(%rdi), %rsi
	callq	__ZNSt3__16vectorIiNS_9allocatorIiEEE11__make_iterEPi
	movq	%rax, -8(%rbp)
	movq	-8(%rbp), %rax
	addq	$16, %rsp
	popq	%rbp
	retq
	.cfi_endproc
                                        ## -- End function
	.p2align	4, 0x90         ## -- Begin function _ZNSt3__1neIPiEEbRKNS_11__wrap_iterIT_EES6_
__ZNSt3__1neIPiEEbRKNS_11__wrap_iterIT_EES6_: ## @_ZNSt3__1neIPiEEbRKNS_11__wrap_iterIT_EES6_
	.cfi_startproc
## %bb.0:
	pushq	%rbp
	.cfi_def_cfa_offset 16
	.cfi_offset %rbp, -16
	movq	%rsp, %rbp
	.cfi_def_cfa_register %rbp
	subq	$16, %rsp
	movq	%rdi, -8(%rbp)
	movq	%rsi, -16(%rbp)
	movq	-8(%rbp), %rdi
	movq	-16(%rbp), %rsi
	callq	__ZNSt3__1eqIPiS1_EEbRKNS_11__wrap_iterIT_EERKNS2_IT0_EE
	xorb	$-1, %al
	andb	$1, %al
	movzbl	%al, %eax
	addq	$16, %rsp
	popq	%rbp
	retq
	.cfi_endproc
                                        ## -- End function
	.p2align	4, 0x90         ## -- Begin function _ZNKSt3__111__wrap_iterIPiEdeEv
__ZNKSt3__111__wrap_iterIPiEdeEv:       ## @_ZNKSt3__111__wrap_iterIPiEdeEv
	.cfi_startproc
## %bb.0:
	pushq	%rbp
	.cfi_def_cfa_offset 16
	.cfi_offset %rbp, -16
	movq	%rsp, %rbp
	.cfi_def_cfa_register %rbp
	movq	%rdi, -8(%rbp)
	movq	-8(%rbp), %rdi
	movq	(%rdi), %rax
	popq	%rbp
	retq
	.cfi_endproc
                                        ## -- End function
	.p2align	4, 0x90         ## -- Begin function _ZNSt3__111__wrap_iterIPiEppEv
__ZNSt3__111__wrap_iterIPiEppEv:        ## @_ZNSt3__111__wrap_iterIPiEppEv
	.cfi_startproc
## %bb.0:
	pushq	%rbp
	.cfi_def_cfa_offset 16
	.cfi_offset %rbp, -16
	movq	%rsp, %rbp
	.cfi_def_cfa_register %rbp
	movq	%rdi, -8(%rbp)
	movq	-8(%rbp), %rdi
	movq	(%rdi), %rax
	addq	$4, %rax
	movq	%rax, (%rdi)
	movq	%rdi, %rax
	popq	%rbp
	retq
	.cfi_endproc
                                        ## -- End function
	.p2align	4, 0x90         ## -- Begin function _ZNKSt3__16vectorIiNS_9allocatorIiEEE4sizeEv
__ZNKSt3__16vectorIiNS_9allocatorIiEEE4sizeEv: ## @_ZNKSt3__16vectorIiNS_9allocatorIiEEE4sizeEv
	.cfi_startproc
## %bb.0:
	pushq	%rbp
	.cfi_def_cfa_offset 16
	.cfi_offset %rbp, -16
	movq	%rsp, %rbp
	.cfi_def_cfa_register %rbp
	movq	%rdi, -8(%rbp)
	movq	-8(%rbp), %rdi
	movq	8(%rdi), %rax
	movq	(%rdi), %rdi
	subq	%rdi, %rax
	sarq	$2, %rax
	popq	%rbp
	retq
	.cfi_endproc
                                        ## -- End function
	.p2align	4, 0x90         ## -- Begin function _ZNSt3__113basic_ostreamIcNS_11char_traitsIcEEElsEPFRS3_S4_E
__ZNSt3__113basic_ostreamIcNS_11char_traitsIcEEElsEPFRS3_S4_E: ## @_ZNSt3__113basic_ostreamIcNS_11char_traitsIcEEElsEPFRS3_S4_E
	.cfi_startproc
## %bb.0:
	pushq	%rbp
	.cfi_def_cfa_offset 16
	.cfi_offset %rbp, -16
	movq	%rsp, %rbp
	.cfi_def_cfa_register %rbp
	subq	$16, %rsp
	movq	%rdi, -8(%rbp)
	movq	%rsi, -16(%rbp)
	movq	-8(%rbp), %rdi
	callq	*-16(%rbp)
	addq	$16, %rsp
	popq	%rbp
	retq
	.cfi_endproc
                                        ## -- End function
	.p2align	4, 0x90         ## -- Begin function _ZNSt3__1L4endlIcNS_11char_traitsIcEEEERNS_13basic_ostreamIT_T0_EES7_
__ZNSt3__1L4endlIcNS_11char_traitsIcEEEERNS_13basic_ostreamIT_T0_EES7_: ## @_ZNSt3__1L4endlIcNS_11char_traitsIcEEEERNS_13basic_ostreamIT_T0_EES7_
	.cfi_startproc
## %bb.0:
	pushq	%rbp
	.cfi_def_cfa_offset 16
	.cfi_offset %rbp, -16
	movq	%rsp, %rbp
	.cfi_def_cfa_register %rbp
	subq	$32, %rsp
	movq	%rdi, -8(%rbp)
	movq	-8(%rbp), %rdi
	movq	-8(%rbp), %rax
	movq	(%rax), %rcx
	movq	-24(%rcx), %rcx
	addq	%rcx, %rax
	movq	%rdi, -16(%rbp)         ## 8-byte Spill
	movq	%rax, %rdi
	movl	$10, %esi
	callq	__ZNKSt3__19basic_iosIcNS_11char_traitsIcEEE5widenEc
	movq	-16(%rbp), %rdi         ## 8-byte Reload
	movsbl	%al, %esi
	callq	__ZNSt3__113basic_ostreamIcNS_11char_traitsIcEEE3putEc
	movq	-8(%rbp), %rdi
	movq	%rax, -24(%rbp)         ## 8-byte Spill
	callq	__ZNSt3__113basic_ostreamIcNS_11char_traitsIcEEE5flushEv
	movq	-8(%rbp), %rcx
	movq	%rax, -32(%rbp)         ## 8-byte Spill
	movq	%rcx, %rax
	addq	$32, %rsp
	popq	%rbp
	retq
	.cfi_endproc
                                        ## -- End function
	.globl	__ZNSt3__16vectorIiNS_9allocatorIiEEED1Ev ## -- Begin function _ZNSt3__16vectorIiNS_9allocatorIiEEED1Ev
	.weak_def_can_be_hidden	__ZNSt3__16vectorIiNS_9allocatorIiEEED1Ev
	.p2align	4, 0x90
__ZNSt3__16vectorIiNS_9allocatorIiEEED1Ev: ## @_ZNSt3__16vectorIiNS_9allocatorIiEEED1Ev
	.cfi_startproc
## %bb.0:
	pushq	%rbp
	.cfi_def_cfa_offset 16
	.cfi_offset %rbp, -16
	movq	%rsp, %rbp
	.cfi_def_cfa_register %rbp
	subq	$16, %rsp
	movq	%rdi, -8(%rbp)
	movq	-8(%rbp), %rdi
	callq	__ZNSt3__16vectorIiNS_9allocatorIiEEED2Ev
	addq	$16, %rsp
	popq	%rbp
	retq
	.cfi_endproc
                                        ## -- End function
	.globl	__ZNSt3__16vectorIiNS_9allocatorIiEEED2Ev ## -- Begin function _ZNSt3__16vectorIiNS_9allocatorIiEEED2Ev
	.weak_def_can_be_hidden	__ZNSt3__16vectorIiNS_9allocatorIiEEED2Ev
	.p2align	4, 0x90
__ZNSt3__16vectorIiNS_9allocatorIiEEED2Ev: ## @_ZNSt3__16vectorIiNS_9allocatorIiEEED2Ev
	.cfi_startproc
## %bb.0:
	pushq	%rbp
	.cfi_def_cfa_offset 16
	.cfi_offset %rbp, -16
	movq	%rsp, %rbp
	.cfi_def_cfa_register %rbp
	subq	$16, %rsp
	movq	%rdi, -8(%rbp)
	movq	-8(%rbp), %rdi
	callq	__ZNSt3__113__vector_baseIiNS_9allocatorIiEEED2Ev
	addq	$16, %rsp
	popq	%rbp
	retq
	.cfi_endproc
                                        ## -- End function
	.globl	__ZNSt3__113__vector_baseIiNS_9allocatorIiEEED2Ev ## -- Begin function _ZNSt3__113__vector_baseIiNS_9allocatorIiEEED2Ev
	.weak_def_can_be_hidden	__ZNSt3__113__vector_baseIiNS_9allocatorIiEEED2Ev
	.p2align	4, 0x90
__ZNSt3__113__vector_baseIiNS_9allocatorIiEEED2Ev: ## @_ZNSt3__113__vector_baseIiNS_9allocatorIiEEED2Ev
	.cfi_startproc
## %bb.0:
	pushq	%rbp
	.cfi_def_cfa_offset 16
	.cfi_offset %rbp, -16
	movq	%rsp, %rbp
	.cfi_def_cfa_register %rbp
	subq	$32, %rsp
	movq	%rdi, -8(%rbp)
	movq	-8(%rbp), %rdi
	cmpq	$0, (%rdi)
	movq	%rdi, -16(%rbp)         ## 8-byte Spill
	je	LBB13_2
## %bb.1:
	movq	-16(%rbp), %rdi         ## 8-byte Reload
	callq	__ZNSt3__113__vector_baseIiNS_9allocatorIiEEE5clearEv
	movq	-16(%rbp), %rdi         ## 8-byte Reload
	callq	__ZNSt3__113__vector_baseIiNS_9allocatorIiEEE7__allocEv
	movq	-16(%rbp), %rdi         ## 8-byte Reload
	movq	(%rdi), %rsi
	movq	%rax, -24(%rbp)         ## 8-byte Spill
	movq	%rsi, -32(%rbp)         ## 8-byte Spill
	callq	__ZNKSt3__113__vector_baseIiNS_9allocatorIiEEE8capacityEv
	movq	-24(%rbp), %rdi         ## 8-byte Reload
	movq	-32(%rbp), %rsi         ## 8-byte Reload
	movq	%rax, %rdx
	callq	__ZNSt3__116allocator_traitsINS_9allocatorIiEEE10deallocateERS2_Pim
LBB13_2:
	addq	$32, %rsp
	popq	%rbp
	retq
	.cfi_endproc
                                        ## -- End function
	.p2align	4, 0x90         ## -- Begin function _ZNSt3__113__vector_baseIiNS_9allocatorIiEEE5clearEv
__ZNSt3__113__vector_baseIiNS_9allocatorIiEEE5clearEv: ## @_ZNSt3__113__vector_baseIiNS_9allocatorIiEEE5clearEv
	.cfi_startproc
## %bb.0:
	pushq	%rbp
	.cfi_def_cfa_offset 16
	.cfi_offset %rbp, -16
	movq	%rsp, %rbp
	.cfi_def_cfa_register %rbp
	subq	$16, %rsp
	movq	%rdi, -8(%rbp)
	movq	-8(%rbp), %rdi
	movq	(%rdi), %rsi
	callq	__ZNSt3__113__vector_baseIiNS_9allocatorIiEEE17__destruct_at_endEPi
	addq	$16, %rsp
	popq	%rbp
	retq
	.cfi_endproc
                                        ## -- End function
	.p2align	4, 0x90         ## -- Begin function _ZNSt3__116allocator_traitsINS_9allocatorIiEEE10deallocateERS2_Pim
__ZNSt3__116allocator_traitsINS_9allocatorIiEEE10deallocateERS2_Pim: ## @_ZNSt3__116allocator_traitsINS_9allocatorIiEEE10deallocateERS2_Pim
	.cfi_startproc
## %bb.0:
	pushq	%rbp
	.cfi_def_cfa_offset 16
	.cfi_offset %rbp, -16
	movq	%rsp, %rbp
	.cfi_def_cfa_register %rbp
	subq	$32, %rsp
	movq	%rdi, -8(%rbp)
	movq	%rsi, -16(%rbp)
	movq	%rdx, -24(%rbp)
	movq	-8(%rbp), %rdi
	movq	-16(%rbp), %rsi
	movq	-24(%rbp), %rdx
	callq	__ZNSt3__19allocatorIiE10deallocateEPim
	addq	$32, %rsp
	popq	%rbp
	retq
	.cfi_endproc
                                        ## -- End function
	.p2align	4, 0x90         ## -- Begin function _ZNSt3__113__vector_baseIiNS_9allocatorIiEEE7__allocEv
__ZNSt3__113__vector_baseIiNS_9allocatorIiEEE7__allocEv: ## @_ZNSt3__113__vector_baseIiNS_9allocatorIiEEE7__allocEv
	.cfi_startproc
## %bb.0:
	pushq	%rbp
	.cfi_def_cfa_offset 16
	.cfi_offset %rbp, -16
	movq	%rsp, %rbp
	.cfi_def_cfa_register %rbp
	subq	$16, %rsp
	movq	%rdi, -8(%rbp)
	movq	-8(%rbp), %rdi
	addq	$16, %rdi
	callq	__ZNSt3__117__compressed_pairIPiNS_9allocatorIiEEE6secondEv
	addq	$16, %rsp
	popq	%rbp
	retq
	.cfi_endproc
                                        ## -- End function
	.p2align	4, 0x90         ## -- Begin function _ZNKSt3__113__vector_baseIiNS_9allocatorIiEEE8capacityEv
__ZNKSt3__113__vector_baseIiNS_9allocatorIiEEE8capacityEv: ## @_ZNKSt3__113__vector_baseIiNS_9allocatorIiEEE8capacityEv
	.cfi_startproc
## %bb.0:
	pushq	%rbp
	.cfi_def_cfa_offset 16
	.cfi_offset %rbp, -16
	movq	%rsp, %rbp
	.cfi_def_cfa_register %rbp
	subq	$16, %rsp
	movq	%rdi, -8(%rbp)
	movq	-8(%rbp), %rdi
	movq	%rdi, -16(%rbp)         ## 8-byte Spill
	callq	__ZNKSt3__113__vector_baseIiNS_9allocatorIiEEE9__end_capEv
	movq	(%rax), %rax
	movq	-16(%rbp), %rdi         ## 8-byte Reload
	movq	(%rdi), %rcx
	subq	%rcx, %rax
	sarq	$2, %rax
	addq	$16, %rsp
	popq	%rbp
	retq
	.cfi_endproc
                                        ## -- End function
	.p2align	4, 0x90         ## -- Begin function _ZNSt3__113__vector_baseIiNS_9allocatorIiEEE17__destruct_at_endEPi
__ZNSt3__113__vector_baseIiNS_9allocatorIiEEE17__destruct_at_endEPi: ## @_ZNSt3__113__vector_baseIiNS_9allocatorIiEEE17__destruct_at_endEPi
Lfunc_begin1:
	.cfi_startproc
	.cfi_personality 155, ___gxx_personality_v0
	.cfi_lsda 16, Lexception1
## %bb.0:
	pushq	%rbp
	.cfi_def_cfa_offset 16
	.cfi_offset %rbp, -16
	movq	%rsp, %rbp
	.cfi_def_cfa_register %rbp
	subq	$48, %rsp
	movq	%rdi, -8(%rbp)
	movq	%rsi, -16(%rbp)
	movq	-8(%rbp), %rsi
	movq	8(%rsi), %rdi
	movq	%rdi, -24(%rbp)
	movq	%rsi, -32(%rbp)         ## 8-byte Spill
LBB18_1:                                ## =>This Inner Loop Header: Depth=1
	movq	-16(%rbp), %rax
	cmpq	-24(%rbp), %rax
	je	LBB18_4
## %bb.2:                               ##   in Loop: Header=BB18_1 Depth=1
	movq	-32(%rbp), %rdi         ## 8-byte Reload
	callq	__ZNSt3__113__vector_baseIiNS_9allocatorIiEEE7__allocEv
	movq	-24(%rbp), %rdi
	addq	$-4, %rdi
	movq	%rdi, -24(%rbp)
	movq	%rax, -40(%rbp)         ## 8-byte Spill
	callq	__ZNSt3__1L16__to_raw_pointerIiEEPT_S2_
Ltmp9:
	movq	-40(%rbp), %rdi         ## 8-byte Reload
	movq	%rax, %rsi
	callq	__ZNSt3__116allocator_traitsINS_9allocatorIiEEE7destroyIiEEvRS2_PT_
Ltmp10:
	jmp	LBB18_3
LBB18_3:                                ##   in Loop: Header=BB18_1 Depth=1
	jmp	LBB18_1
LBB18_4:
	movq	-16(%rbp), %rax
	movq	-32(%rbp), %rcx         ## 8-byte Reload
	movq	%rax, 8(%rcx)
	addq	$48, %rsp
	popq	%rbp
	retq
LBB18_5:
Ltmp11:
	movq	%rax, %rdi
	movq	%rdx, -48(%rbp)         ## 8-byte Spill
	callq	___clang_call_terminate
Lfunc_end1:
	.cfi_endproc
	.section	__TEXT,__gcc_except_tab
	.p2align	2
GCC_except_table18:
Lexception1:
	.byte	255                     ## @LPStart Encoding = omit
	.byte	155                     ## @TType Encoding = indirect pcrel sdata4
	.uleb128 Lttbase0-Lttbaseref0
Lttbaseref0:
	.byte	1                       ## Call site Encoding = uleb128
	.uleb128 Lcst_end1-Lcst_begin1
Lcst_begin1:
	.uleb128 Ltmp9-Lfunc_begin1     ## >> Call Site 1 <<
	.uleb128 Ltmp10-Ltmp9           ##   Call between Ltmp9 and Ltmp10
	.uleb128 Ltmp11-Lfunc_begin1    ##     jumps to Ltmp11
	.byte	1                       ##   On action: 1
Lcst_end1:
	.byte	1                       ## >> Action Record 1 <<
                                        ##   Catch TypeInfo 1
	.byte	0                       ##   No further actions
	.p2align	2
                                        ## >> Catch TypeInfos <<
	.long	0                       ## TypeInfo 1
Lttbase0:
	.p2align	2
                                        ## -- End function
	.section	__TEXT,__text,regular,pure_instructions
	.p2align	4, 0x90         ## -- Begin function _ZNSt3__116allocator_traitsINS_9allocatorIiEEE7destroyIiEEvRS2_PT_
__ZNSt3__116allocator_traitsINS_9allocatorIiEEE7destroyIiEEvRS2_PT_: ## @_ZNSt3__116allocator_traitsINS_9allocatorIiEEE7destroyIiEEvRS2_PT_
	.cfi_startproc
## %bb.0:
	pushq	%rbp
	.cfi_def_cfa_offset 16
	.cfi_offset %rbp, -16
	movq	%rsp, %rbp
	.cfi_def_cfa_register %rbp
	subq	$32, %rsp
	movq	%rdi, -8(%rbp)
	movq	%rsi, -16(%rbp)
	movq	-8(%rbp), %rdi
	movq	-16(%rbp), %rsi
	callq	__ZNSt3__116allocator_traitsINS_9allocatorIiEEE9__destroyIiEEvNS_17integral_constantIbLb1EEERS2_PT_
	addq	$32, %rsp
	popq	%rbp
	retq
	.cfi_endproc
                                        ## -- End function
	.p2align	4, 0x90         ## -- Begin function _ZNSt3__1L16__to_raw_pointerIiEEPT_S2_
__ZNSt3__1L16__to_raw_pointerIiEEPT_S2_: ## @_ZNSt3__1L16__to_raw_pointerIiEEPT_S2_
	.cfi_startproc
## %bb.0:
	pushq	%rbp
	.cfi_def_cfa_offset 16
	.cfi_offset %rbp, -16
	movq	%rsp, %rbp
	.cfi_def_cfa_register %rbp
	movq	%rdi, -8(%rbp)
	movq	-8(%rbp), %rax
	popq	%rbp
	retq
	.cfi_endproc
                                        ## -- End function
	.private_extern	___clang_call_terminate ## -- Begin function __clang_call_terminate
	.globl	___clang_call_terminate
	.weak_definition	___clang_call_terminate
	.p2align	4, 0x90
___clang_call_terminate:                ## @__clang_call_terminate
## %bb.0:
	pushq	%rax
	callq	___cxa_begin_catch
	movq	%rax, (%rsp)            ## 8-byte Spill
	callq	__ZSt9terminatev
                                        ## -- End function
	.p2align	4, 0x90         ## -- Begin function _ZNSt3__116allocator_traitsINS_9allocatorIiEEE9__destroyIiEEvNS_17integral_constantIbLb1EEERS2_PT_
__ZNSt3__116allocator_traitsINS_9allocatorIiEEE9__destroyIiEEvNS_17integral_constantIbLb1EEERS2_PT_: ## @_ZNSt3__116allocator_traitsINS_9allocatorIiEEE9__destroyIiEEvNS_17integral_constantIbLb1EEERS2_PT_
	.cfi_startproc
## %bb.0:
	pushq	%rbp
	.cfi_def_cfa_offset 16
	.cfi_offset %rbp, -16
	movq	%rsp, %rbp
	.cfi_def_cfa_register %rbp
	subq	$32, %rsp
	movq	%rdi, -16(%rbp)
	movq	%rsi, -24(%rbp)
	movq	-16(%rbp), %rdi
	movq	-24(%rbp), %rsi
	callq	__ZNSt3__19allocatorIiE7destroyEPi
	addq	$32, %rsp
	popq	%rbp
	retq
	.cfi_endproc
                                        ## -- End function
	.p2align	4, 0x90         ## -- Begin function _ZNSt3__19allocatorIiE7destroyEPi
__ZNSt3__19allocatorIiE7destroyEPi:     ## @_ZNSt3__19allocatorIiE7destroyEPi
	.cfi_startproc
## %bb.0:
	pushq	%rbp
	.cfi_def_cfa_offset 16
	.cfi_offset %rbp, -16
	movq	%rsp, %rbp
	.cfi_def_cfa_register %rbp
	movq	%rdi, -8(%rbp)
	movq	%rsi, -16(%rbp)
	popq	%rbp
	retq
	.cfi_endproc
                                        ## -- End function
	.p2align	4, 0x90         ## -- Begin function _ZNSt3__19allocatorIiE10deallocateEPim
__ZNSt3__19allocatorIiE10deallocateEPim: ## @_ZNSt3__19allocatorIiE10deallocateEPim
Lfunc_begin2:
	.cfi_startproc
	.cfi_personality 155, ___gxx_personality_v0
	.cfi_lsda 16, Lexception2
## %bb.0:
	pushq	%rbp
	.cfi_def_cfa_offset 16
	.cfi_offset %rbp, -16
	movq	%rsp, %rbp
	.cfi_def_cfa_register %rbp
	subq	$32, %rsp
	movq	%rdi, -8(%rbp)
	movq	%rsi, -16(%rbp)
	movq	%rdx, -24(%rbp)
	movq	-16(%rbp), %rdi
Ltmp12:
	movl	$4, %eax
	movl	%eax, %esi
	callq	__ZNSt3__1L19__libcpp_deallocateEPvm
Ltmp13:
	jmp	LBB24_1
LBB24_1:
	addq	$32, %rsp
	popq	%rbp
	retq
LBB24_2:
Ltmp14:
	movq	%rax, %rdi
	movq	%rdx, -32(%rbp)         ## 8-byte Spill
	callq	___clang_call_terminate
Lfunc_end2:
	.cfi_endproc
	.section	__TEXT,__gcc_except_tab
	.p2align	2
GCC_except_table24:
Lexception2:
	.byte	255                     ## @LPStart Encoding = omit
	.byte	155                     ## @TType Encoding = indirect pcrel sdata4
	.uleb128 Lttbase1-Lttbaseref1
Lttbaseref1:
	.byte	1                       ## Call site Encoding = uleb128
	.uleb128 Lcst_end2-Lcst_begin2
Lcst_begin2:
	.uleb128 Ltmp12-Lfunc_begin2    ## >> Call Site 1 <<
	.uleb128 Ltmp13-Ltmp12          ##   Call between Ltmp12 and Ltmp13
	.uleb128 Ltmp14-Lfunc_begin2    ##     jumps to Ltmp14
	.byte	1                       ##   On action: 1
Lcst_end2:
	.byte	1                       ## >> Action Record 1 <<
                                        ##   Catch TypeInfo 1
	.byte	0                       ##   No further actions
	.p2align	2
                                        ## >> Catch TypeInfos <<
	.long	0                       ## TypeInfo 1
Lttbase1:
	.p2align	2
                                        ## -- End function
	.section	__TEXT,__text,regular,pure_instructions
	.p2align	4, 0x90         ## -- Begin function _ZNSt3__1L19__libcpp_deallocateEPvm
__ZNSt3__1L19__libcpp_deallocateEPvm:   ## @_ZNSt3__1L19__libcpp_deallocateEPvm
	.cfi_startproc
## %bb.0:
	pushq	%rbp
	.cfi_def_cfa_offset 16
	.cfi_offset %rbp, -16
	movq	%rsp, %rbp
	.cfi_def_cfa_register %rbp
	subq	$16, %rsp
	movq	%rdi, -8(%rbp)
	movq	%rsi, -16(%rbp)
	movq	-8(%rbp), %rdi
	callq	__ZdlPv
	addq	$16, %rsp
	popq	%rbp
	retq
	.cfi_endproc
                                        ## -- End function
	.p2align	4, 0x90         ## -- Begin function _ZNSt3__117__compressed_pairIPiNS_9allocatorIiEEE6secondEv
__ZNSt3__117__compressed_pairIPiNS_9allocatorIiEEE6secondEv: ## @_ZNSt3__117__compressed_pairIPiNS_9allocatorIiEEE6secondEv
	.cfi_startproc
## %bb.0:
	pushq	%rbp
	.cfi_def_cfa_offset 16
	.cfi_offset %rbp, -16
	movq	%rsp, %rbp
	.cfi_def_cfa_register %rbp
	subq	$16, %rsp
	movq	%rdi, -8(%rbp)
	movq	-8(%rbp), %rdi
	callq	__ZNSt3__122__compressed_pair_elemINS_9allocatorIiEELi1ELb1EE5__getEv
	addq	$16, %rsp
	popq	%rbp
	retq
	.cfi_endproc
                                        ## -- End function
	.p2align	4, 0x90         ## -- Begin function _ZNSt3__122__compressed_pair_elemINS_9allocatorIiEELi1ELb1EE5__getEv
__ZNSt3__122__compressed_pair_elemINS_9allocatorIiEELi1ELb1EE5__getEv: ## @_ZNSt3__122__compressed_pair_elemINS_9allocatorIiEELi1ELb1EE5__getEv
	.cfi_startproc
## %bb.0:
	pushq	%rbp
	.cfi_def_cfa_offset 16
	.cfi_offset %rbp, -16
	movq	%rsp, %rbp
	.cfi_def_cfa_register %rbp
	movq	%rdi, -8(%rbp)
	movq	-8(%rbp), %rdi
	movq	%rdi, %rax
	popq	%rbp
	retq
	.cfi_endproc
                                        ## -- End function
	.p2align	4, 0x90         ## -- Begin function _ZNKSt3__113__vector_baseIiNS_9allocatorIiEEE9__end_capEv
__ZNKSt3__113__vector_baseIiNS_9allocatorIiEEE9__end_capEv: ## @_ZNKSt3__113__vector_baseIiNS_9allocatorIiEEE9__end_capEv
	.cfi_startproc
## %bb.0:
	pushq	%rbp
	.cfi_def_cfa_offset 16
	.cfi_offset %rbp, -16
	movq	%rsp, %rbp
	.cfi_def_cfa_register %rbp
	subq	$16, %rsp
	movq	%rdi, -8(%rbp)
	movq	-8(%rbp), %rdi
	addq	$16, %rdi
	callq	__ZNKSt3__117__compressed_pairIPiNS_9allocatorIiEEE5firstEv
	addq	$16, %rsp
	popq	%rbp
	retq
	.cfi_endproc
                                        ## -- End function
	.p2align	4, 0x90         ## -- Begin function _ZNKSt3__117__compressed_pairIPiNS_9allocatorIiEEE5firstEv
__ZNKSt3__117__compressed_pairIPiNS_9allocatorIiEEE5firstEv: ## @_ZNKSt3__117__compressed_pairIPiNS_9allocatorIiEEE5firstEv
	.cfi_startproc
## %bb.0:
	pushq	%rbp
	.cfi_def_cfa_offset 16
	.cfi_offset %rbp, -16
	movq	%rsp, %rbp
	.cfi_def_cfa_register %rbp
	subq	$16, %rsp
	movq	%rdi, -8(%rbp)
	movq	-8(%rbp), %rdi
	callq	__ZNKSt3__122__compressed_pair_elemIPiLi0ELb0EE5__getEv
	addq	$16, %rsp
	popq	%rbp
	retq
	.cfi_endproc
                                        ## -- End function
	.p2align	4, 0x90         ## -- Begin function _ZNKSt3__122__compressed_pair_elemIPiLi0ELb0EE5__getEv
__ZNKSt3__122__compressed_pair_elemIPiLi0ELb0EE5__getEv: ## @_ZNKSt3__122__compressed_pair_elemIPiLi0ELb0EE5__getEv
	.cfi_startproc
## %bb.0:
	pushq	%rbp
	.cfi_def_cfa_offset 16
	.cfi_offset %rbp, -16
	movq	%rsp, %rbp
	.cfi_def_cfa_register %rbp
	movq	%rdi, -8(%rbp)
	movq	-8(%rbp), %rax
	popq	%rbp
	retq
	.cfi_endproc
                                        ## -- End function
	.globl	__ZNSt3__16vectorIiNS_9allocatorIiEEEC2Em ## -- Begin function _ZNSt3__16vectorIiNS_9allocatorIiEEEC2Em
	.weak_def_can_be_hidden	__ZNSt3__16vectorIiNS_9allocatorIiEEEC2Em
	.p2align	4, 0x90
__ZNSt3__16vectorIiNS_9allocatorIiEEEC2Em: ## @_ZNSt3__16vectorIiNS_9allocatorIiEEEC2Em
Lfunc_begin3:
	.cfi_startproc
	.cfi_personality 155, ___gxx_personality_v0
	.cfi_lsda 16, Lexception3
## %bb.0:
	pushq	%rbp
	.cfi_def_cfa_offset 16
	.cfi_offset %rbp, -16
	movq	%rsp, %rbp
	.cfi_def_cfa_register %rbp
	subq	$48, %rsp
	movq	%rdi, -8(%rbp)
	movq	%rsi, -16(%rbp)
	movq	-8(%rbp), %rsi
	movq	%rsi, %rdi
	movq	%rsi, -40(%rbp)         ## 8-byte Spill
	callq	__ZNSt3__113__vector_baseIiNS_9allocatorIiEEEC2Ev
	cmpq	$0, -16(%rbp)
	jbe	LBB31_5
## %bb.1:
	movq	-16(%rbp), %rsi
Ltmp15:
	movq	-40(%rbp), %rdi         ## 8-byte Reload
	callq	__ZNSt3__16vectorIiNS_9allocatorIiEEE11__vallocateEm
Ltmp16:
	jmp	LBB31_2
LBB31_2:
	movq	-16(%rbp), %rsi
Ltmp17:
	movq	-40(%rbp), %rdi         ## 8-byte Reload
	callq	__ZNSt3__16vectorIiNS_9allocatorIiEEE18__construct_at_endEm
Ltmp18:
	jmp	LBB31_3
LBB31_3:
	jmp	LBB31_5
LBB31_4:
Ltmp19:
	movl	%edx, %ecx
	movq	%rax, -24(%rbp)
	movl	%ecx, -28(%rbp)
	movq	-40(%rbp), %rax         ## 8-byte Reload
	movq	%rax, %rdi
	callq	__ZNSt3__113__vector_baseIiNS_9allocatorIiEEED2Ev
	jmp	LBB31_6
LBB31_5:
	addq	$48, %rsp
	popq	%rbp
	retq
LBB31_6:
	movq	-24(%rbp), %rdi
	callq	__Unwind_Resume
	ud2
Lfunc_end3:
	.cfi_endproc
	.section	__TEXT,__gcc_except_tab
	.p2align	2
GCC_except_table31:
Lexception3:
	.byte	255                     ## @LPStart Encoding = omit
	.byte	255                     ## @TType Encoding = omit
	.byte	1                       ## Call site Encoding = uleb128
	.uleb128 Lcst_end3-Lcst_begin3
Lcst_begin3:
	.uleb128 Ltmp15-Lfunc_begin3    ## >> Call Site 1 <<
	.uleb128 Ltmp18-Ltmp15          ##   Call between Ltmp15 and Ltmp18
	.uleb128 Ltmp19-Lfunc_begin3    ##     jumps to Ltmp19
	.byte	0                       ##   On action: cleanup
	.uleb128 Ltmp18-Lfunc_begin3    ## >> Call Site 2 <<
	.uleb128 Lfunc_end3-Ltmp18      ##   Call between Ltmp18 and Lfunc_end3
	.byte	0                       ##     has no landing pad
	.byte	0                       ##   On action: cleanup
Lcst_end3:
	.p2align	2
                                        ## -- End function
	.section	__TEXT,__text,regular,pure_instructions
	.p2align	4, 0x90         ## -- Begin function _ZNSt3__113__vector_baseIiNS_9allocatorIiEEEC2Ev
__ZNSt3__113__vector_baseIiNS_9allocatorIiEEEC2Ev: ## @_ZNSt3__113__vector_baseIiNS_9allocatorIiEEEC2Ev
Lfunc_begin4:
	.cfi_startproc
	.cfi_personality 155, ___gxx_personality_v0
	.cfi_lsda 16, Lexception4
## %bb.0:
	pushq	%rbp
	.cfi_def_cfa_offset 16
	.cfi_offset %rbp, -16
	movq	%rsp, %rbp
	.cfi_def_cfa_register %rbp
	subq	$32, %rsp
	movq	%rdi, -8(%rbp)
	movq	-8(%rbp), %rdi
Ltmp20:
	movq	%rdi, -24(%rbp)         ## 8-byte Spill
	callq	__ZNSt3__120__vector_base_commonILb1EEC2Ev
Ltmp21:
	jmp	LBB32_1
LBB32_1:
	movq	-24(%rbp), %rax         ## 8-byte Reload
	movq	$0, (%rax)
	movq	$0, 8(%rax)
	addq	$16, %rax
	movq	$0, -16(%rbp)
Ltmp22:
	leaq	-16(%rbp), %rsi
	movq	%rax, %rdi
	callq	__ZNSt3__117__compressed_pairIPiNS_9allocatorIiEEEC1IDnLb1EEEOT_
Ltmp23:
	jmp	LBB32_2
LBB32_2:
	addq	$32, %rsp
	popq	%rbp
	retq
LBB32_3:
Ltmp24:
	movq	%rax, %rdi
	movq	%rdx, -32(%rbp)         ## 8-byte Spill
	callq	___clang_call_terminate
Lfunc_end4:
	.cfi_endproc
	.section	__TEXT,__gcc_except_tab
	.p2align	2
GCC_except_table32:
Lexception4:
	.byte	255                     ## @LPStart Encoding = omit
	.byte	155                     ## @TType Encoding = indirect pcrel sdata4
	.uleb128 Lttbase2-Lttbaseref2
Lttbaseref2:
	.byte	1                       ## Call site Encoding = uleb128
	.uleb128 Lcst_end4-Lcst_begin4
Lcst_begin4:
	.uleb128 Ltmp20-Lfunc_begin4    ## >> Call Site 1 <<
	.uleb128 Ltmp23-Ltmp20          ##   Call between Ltmp20 and Ltmp23
	.uleb128 Ltmp24-Lfunc_begin4    ##     jumps to Ltmp24
	.byte	1                       ##   On action: 1
Lcst_end4:
	.byte	1                       ## >> Action Record 1 <<
                                        ##   Catch TypeInfo 1
	.byte	0                       ##   No further actions
	.p2align	2
                                        ## >> Catch TypeInfos <<
	.long	0                       ## TypeInfo 1
Lttbase2:
	.p2align	2
                                        ## -- End function
	.section	__TEXT,__text,regular,pure_instructions
	.globl	__ZNSt3__16vectorIiNS_9allocatorIiEEE11__vallocateEm ## -- Begin function _ZNSt3__16vectorIiNS_9allocatorIiEEE11__vallocateEm
	.weak_definition	__ZNSt3__16vectorIiNS_9allocatorIiEEE11__vallocateEm
	.p2align	4, 0x90
__ZNSt3__16vectorIiNS_9allocatorIiEEE11__vallocateEm: ## @_ZNSt3__16vectorIiNS_9allocatorIiEEE11__vallocateEm
	.cfi_startproc
## %bb.0:
	pushq	%rbp
	.cfi_def_cfa_offset 16
	.cfi_offset %rbp, -16
	movq	%rsp, %rbp
	.cfi_def_cfa_register %rbp
	subq	$48, %rsp
	movq	%rdi, -8(%rbp)
	movq	%rsi, -16(%rbp)
	movq	-8(%rbp), %rsi
	movq	-16(%rbp), %rdi
	movq	%rdi, -24(%rbp)         ## 8-byte Spill
	movq	%rsi, %rdi
	movq	%rsi, -32(%rbp)         ## 8-byte Spill
	callq	__ZNKSt3__16vectorIiNS_9allocatorIiEEE8max_sizeEv
	movq	-24(%rbp), %rsi         ## 8-byte Reload
	cmpq	%rax, %rsi
	jbe	LBB33_2
## %bb.1:
	movq	-32(%rbp), %rdi         ## 8-byte Reload
	callq	__ZNKSt3__120__vector_base_commonILb1EE20__throw_length_errorEv
LBB33_2:
	movq	-32(%rbp), %rax         ## 8-byte Reload
	movq	%rax, %rdi
	callq	__ZNSt3__113__vector_baseIiNS_9allocatorIiEEE7__allocEv
	movq	-16(%rbp), %rsi
	movq	%rax, %rdi
	callq	__ZNSt3__116allocator_traitsINS_9allocatorIiEEE8allocateERS2_m
	movq	-32(%rbp), %rsi         ## 8-byte Reload
	movq	%rax, 8(%rsi)
	movq	%rax, (%rsi)
	movq	(%rsi), %rax
	movq	-16(%rbp), %rdi
	shlq	$2, %rdi
	addq	%rdi, %rax
	movq	%rsi, %rdi
	movq	%rax, -40(%rbp)         ## 8-byte Spill
	callq	__ZNSt3__113__vector_baseIiNS_9allocatorIiEEE9__end_capEv
	xorl	%ecx, %ecx
	movl	%ecx, %esi
	movq	-40(%rbp), %rdi         ## 8-byte Reload
	movq	%rdi, (%rax)
	movq	-32(%rbp), %rdi         ## 8-byte Reload
	callq	__ZNKSt3__16vectorIiNS_9allocatorIiEEE14__annotate_newEm
	addq	$48, %rsp
	popq	%rbp
	retq
	.cfi_endproc
                                        ## -- End function
	.globl	__ZNSt3__16vectorIiNS_9allocatorIiEEE18__construct_at_endEm ## -- Begin function _ZNSt3__16vectorIiNS_9allocatorIiEEE18__construct_at_endEm
	.weak_definition	__ZNSt3__16vectorIiNS_9allocatorIiEEE18__construct_at_endEm
	.p2align	4, 0x90
__ZNSt3__16vectorIiNS_9allocatorIiEEE18__construct_at_endEm: ## @_ZNSt3__16vectorIiNS_9allocatorIiEEE18__construct_at_endEm
	.cfi_startproc
## %bb.0:
	pushq	%rbp
	.cfi_def_cfa_offset 16
	.cfi_offset %rbp, -16
	movq	%rsp, %rbp
	.cfi_def_cfa_register %rbp
	subq	$48, %rsp
	movq	%rdi, -8(%rbp)
	movq	%rsi, -16(%rbp)
	movq	-8(%rbp), %rsi
	movq	%rsi, %rdi
	movq	%rsi, -40(%rbp)         ## 8-byte Spill
	callq	__ZNSt3__113__vector_baseIiNS_9allocatorIiEEE7__allocEv
	movq	%rax, -24(%rbp)
LBB34_1:                                ## =>This Inner Loop Header: Depth=1
	movl	$1, %eax
	movl	%eax, %edx
	leaq	-32(%rbp), %rdi
	movq	-40(%rbp), %rsi         ## 8-byte Reload
	callq	__ZNSt3__16vectorIiNS_9allocatorIiEEE24__RAII_IncreaseAnnotatorC1ERKS3_m
	movq	-24(%rbp), %rdi
	movq	-40(%rbp), %rdx         ## 8-byte Reload
	movq	8(%rdx), %rsi
	movq	%rdi, -48(%rbp)         ## 8-byte Spill
	movq	%rsi, %rdi
	callq	__ZNSt3__1L16__to_raw_pointerIiEEPT_S2_
	movq	-48(%rbp), %rdi         ## 8-byte Reload
	movq	%rax, %rsi
	callq	__ZNSt3__116allocator_traitsINS_9allocatorIiEEE9constructIiJEEEvRS2_PT_DpOT0_
	movq	-40(%rbp), %rax         ## 8-byte Reload
	movq	8(%rax), %rdx
	addq	$4, %rdx
	movq	%rdx, 8(%rax)
	movq	-16(%rbp), %rdx
	addq	$-1, %rdx
	movq	%rdx, -16(%rbp)
	leaq	-32(%rbp), %rdi
	callq	__ZNSt3__16vectorIiNS_9allocatorIiEEE24__RAII_IncreaseAnnotator6__doneEv
## %bb.2:                               ##   in Loop: Header=BB34_1 Depth=1
	cmpq	$0, -16(%rbp)
	ja	LBB34_1
## %bb.3:
	addq	$48, %rsp
	popq	%rbp
	retq
	.cfi_endproc
                                        ## -- End function
	.p2align	4, 0x90         ## -- Begin function _ZNSt3__120__vector_base_commonILb1EEC2Ev
__ZNSt3__120__vector_base_commonILb1EEC2Ev: ## @_ZNSt3__120__vector_base_commonILb1EEC2Ev
	.cfi_startproc
## %bb.0:
	pushq	%rbp
	.cfi_def_cfa_offset 16
	.cfi_offset %rbp, -16
	movq	%rsp, %rbp
	.cfi_def_cfa_register %rbp
	movq	%rdi, -8(%rbp)
	popq	%rbp
	retq
	.cfi_endproc
                                        ## -- End function
	.p2align	4, 0x90         ## -- Begin function _ZNSt3__117__compressed_pairIPiNS_9allocatorIiEEEC1IDnLb1EEEOT_
__ZNSt3__117__compressed_pairIPiNS_9allocatorIiEEEC1IDnLb1EEEOT_: ## @_ZNSt3__117__compressed_pairIPiNS_9allocatorIiEEEC1IDnLb1EEEOT_
	.cfi_startproc
## %bb.0:
	pushq	%rbp
	.cfi_def_cfa_offset 16
	.cfi_offset %rbp, -16
	movq	%rsp, %rbp
	.cfi_def_cfa_register %rbp
	subq	$16, %rsp
	movq	%rdi, -8(%rbp)
	movq	%rsi, -16(%rbp)
	movq	-8(%rbp), %rdi
	movq	-16(%rbp), %rsi
	callq	__ZNSt3__117__compressed_pairIPiNS_9allocatorIiEEEC2IDnLb1EEEOT_
	addq	$16, %rsp
	popq	%rbp
	retq
	.cfi_endproc
                                        ## -- End function
	.p2align	4, 0x90         ## -- Begin function _ZNSt3__117__compressed_pairIPiNS_9allocatorIiEEEC2IDnLb1EEEOT_
__ZNSt3__117__compressed_pairIPiNS_9allocatorIiEEEC2IDnLb1EEEOT_: ## @_ZNSt3__117__compressed_pairIPiNS_9allocatorIiEEEC2IDnLb1EEEOT_
	.cfi_startproc
## %bb.0:
	pushq	%rbp
	.cfi_def_cfa_offset 16
	.cfi_offset %rbp, -16
	movq	%rsp, %rbp
	.cfi_def_cfa_register %rbp
	subq	$32, %rsp
	movq	%rdi, -8(%rbp)
	movq	%rsi, -16(%rbp)
	movq	-8(%rbp), %rsi
	movq	%rsi, %rdi
	movq	-16(%rbp), %rax
	movq	%rdi, -24(%rbp)         ## 8-byte Spill
	movq	%rax, %rdi
	movq	%rsi, -32(%rbp)         ## 8-byte Spill
	callq	__ZNSt3__1L7forwardIDnEEOT_RNS_16remove_referenceIS1_E4typeE
	movq	-24(%rbp), %rdi         ## 8-byte Reload
	movq	%rax, %rsi
	callq	__ZNSt3__122__compressed_pair_elemIPiLi0ELb0EEC2IDnvEEOT_
	movq	-32(%rbp), %rax         ## 8-byte Reload
	movq	%rax, %rdi
	callq	__ZNSt3__122__compressed_pair_elemINS_9allocatorIiEELi1ELb1EEC2Ev
	addq	$32, %rsp
	popq	%rbp
	retq
	.cfi_endproc
                                        ## -- End function
	.p2align	4, 0x90         ## -- Begin function _ZNSt3__1L7forwardIDnEEOT_RNS_16remove_referenceIS1_E4typeE
__ZNSt3__1L7forwardIDnEEOT_RNS_16remove_referenceIS1_E4typeE: ## @_ZNSt3__1L7forwardIDnEEOT_RNS_16remove_referenceIS1_E4typeE
	.cfi_startproc
## %bb.0:
	pushq	%rbp
	.cfi_def_cfa_offset 16
	.cfi_offset %rbp, -16
	movq	%rsp, %rbp
	.cfi_def_cfa_register %rbp
	movq	%rdi, -8(%rbp)
	movq	-8(%rbp), %rax
	popq	%rbp
	retq
	.cfi_endproc
                                        ## -- End function
	.p2align	4, 0x90         ## -- Begin function _ZNSt3__122__compressed_pair_elemIPiLi0ELb0EEC2IDnvEEOT_
__ZNSt3__122__compressed_pair_elemIPiLi0ELb0EEC2IDnvEEOT_: ## @_ZNSt3__122__compressed_pair_elemIPiLi0ELb0EEC2IDnvEEOT_
	.cfi_startproc
## %bb.0:
	pushq	%rbp
	.cfi_def_cfa_offset 16
	.cfi_offset %rbp, -16
	movq	%rsp, %rbp
	.cfi_def_cfa_register %rbp
	subq	$32, %rsp
	movq	%rdi, -8(%rbp)
	movq	%rsi, -16(%rbp)
	movq	-8(%rbp), %rsi
	movq	-16(%rbp), %rdi
	movq	%rsi, -24(%rbp)         ## 8-byte Spill
	callq	__ZNSt3__1L7forwardIDnEEOT_RNS_16remove_referenceIS1_E4typeE
	movq	-24(%rbp), %rsi         ## 8-byte Reload
	movq	$0, (%rsi)
	movq	%rax, -32(%rbp)         ## 8-byte Spill
	addq	$32, %rsp
	popq	%rbp
	retq
	.cfi_endproc
                                        ## -- End function
	.p2align	4, 0x90         ## -- Begin function _ZNSt3__122__compressed_pair_elemINS_9allocatorIiEELi1ELb1EEC2Ev
__ZNSt3__122__compressed_pair_elemINS_9allocatorIiEELi1ELb1EEC2Ev: ## @_ZNSt3__122__compressed_pair_elemINS_9allocatorIiEELi1ELb1EEC2Ev
	.cfi_startproc
## %bb.0:
	pushq	%rbp
	.cfi_def_cfa_offset 16
	.cfi_offset %rbp, -16
	movq	%rsp, %rbp
	.cfi_def_cfa_register %rbp
	subq	$16, %rsp
	movq	%rdi, -8(%rbp)
	movq	-8(%rbp), %rdi
	callq	__ZNSt3__19allocatorIiEC2Ev
	addq	$16, %rsp
	popq	%rbp
	retq
	.cfi_endproc
                                        ## -- End function
	.p2align	4, 0x90         ## -- Begin function _ZNSt3__19allocatorIiEC2Ev
__ZNSt3__19allocatorIiEC2Ev:            ## @_ZNSt3__19allocatorIiEC2Ev
	.cfi_startproc
## %bb.0:
	pushq	%rbp
	.cfi_def_cfa_offset 16
	.cfi_offset %rbp, -16
	movq	%rsp, %rbp
	.cfi_def_cfa_register %rbp
	movq	%rdi, -8(%rbp)
	popq	%rbp
	retq
	.cfi_endproc
                                        ## -- End function
	.globl	__ZNKSt3__16vectorIiNS_9allocatorIiEEE8max_sizeEv ## -- Begin function _ZNKSt3__16vectorIiNS_9allocatorIiEEE8max_sizeEv
	.weak_definition	__ZNKSt3__16vectorIiNS_9allocatorIiEEE8max_sizeEv
	.p2align	4, 0x90
__ZNKSt3__16vectorIiNS_9allocatorIiEEE8max_sizeEv: ## @_ZNKSt3__16vectorIiNS_9allocatorIiEEE8max_sizeEv
Lfunc_begin5:
	.cfi_startproc
	.cfi_personality 155, ___gxx_personality_v0
	.cfi_lsda 16, Lexception5
## %bb.0:
	pushq	%rbp
	.cfi_def_cfa_offset 16
	.cfi_offset %rbp, -16
	movq	%rsp, %rbp
	.cfi_def_cfa_register %rbp
	subq	$48, %rsp
	movq	%rdi, -8(%rbp)
	movq	-8(%rbp), %rdi
	callq	__ZNKSt3__113__vector_baseIiNS_9allocatorIiEEE7__allocEv
	movq	%rax, %rdi
	callq	__ZNSt3__116allocator_traitsINS_9allocatorIiEEE8max_sizeERKS2_
	movq	%rax, -16(%rbp)
	callq	__ZNSt3__114numeric_limitsIlE3maxEv
	movq	%rax, -24(%rbp)
Ltmp25:
	leaq	-16(%rbp), %rdi
	leaq	-24(%rbp), %rsi
	callq	__ZNSt3__1L3minImEERKT_S3_S3_
Ltmp26:
	movq	%rax, -32(%rbp)         ## 8-byte Spill
	jmp	LBB42_1
LBB42_1:
	movq	-32(%rbp), %rax         ## 8-byte Reload
	movq	(%rax), %rax
	addq	$48, %rsp
	popq	%rbp
	retq
LBB42_2:
Ltmp27:
	movq	%rax, %rdi
	movq	%rdx, -40(%rbp)         ## 8-byte Spill
	callq	___clang_call_terminate
Lfunc_end5:
	.cfi_endproc
	.section	__TEXT,__gcc_except_tab
	.p2align	2
GCC_except_table42:
Lexception5:
	.byte	255                     ## @LPStart Encoding = omit
	.byte	155                     ## @TType Encoding = indirect pcrel sdata4
	.uleb128 Lttbase3-Lttbaseref3
Lttbaseref3:
	.byte	1                       ## Call site Encoding = uleb128
	.uleb128 Lcst_end5-Lcst_begin5
Lcst_begin5:
	.uleb128 Ltmp25-Lfunc_begin5    ## >> Call Site 1 <<
	.uleb128 Ltmp26-Ltmp25          ##   Call between Ltmp25 and Ltmp26
	.uleb128 Ltmp27-Lfunc_begin5    ##     jumps to Ltmp27
	.byte	1                       ##   On action: 1
Lcst_end5:
	.byte	1                       ## >> Action Record 1 <<
                                        ##   Catch TypeInfo 1
	.byte	0                       ##   No further actions
	.p2align	2
                                        ## >> Catch TypeInfos <<
	.long	0                       ## TypeInfo 1
Lttbase3:
	.p2align	2
                                        ## -- End function
	.section	__TEXT,__text,regular,pure_instructions
	.p2align	4, 0x90         ## -- Begin function _ZNSt3__116allocator_traitsINS_9allocatorIiEEE8allocateERS2_m
__ZNSt3__116allocator_traitsINS_9allocatorIiEEE8allocateERS2_m: ## @_ZNSt3__116allocator_traitsINS_9allocatorIiEEE8allocateERS2_m
	.cfi_startproc
## %bb.0:
	pushq	%rbp
	.cfi_def_cfa_offset 16
	.cfi_offset %rbp, -16
	movq	%rsp, %rbp
	.cfi_def_cfa_register %rbp
	subq	$16, %rsp
	xorl	%eax, %eax
	movl	%eax, %edx
	movq	%rdi, -8(%rbp)
	movq	%rsi, -16(%rbp)
	movq	-8(%rbp), %rdi
	movq	-16(%rbp), %rsi
	callq	__ZNSt3__19allocatorIiE8allocateEmPKv
	addq	$16, %rsp
	popq	%rbp
	retq
	.cfi_endproc
                                        ## -- End function
	.p2align	4, 0x90         ## -- Begin function _ZNSt3__113__vector_baseIiNS_9allocatorIiEEE9__end_capEv
__ZNSt3__113__vector_baseIiNS_9allocatorIiEEE9__end_capEv: ## @_ZNSt3__113__vector_baseIiNS_9allocatorIiEEE9__end_capEv
	.cfi_startproc
## %bb.0:
	pushq	%rbp
	.cfi_def_cfa_offset 16
	.cfi_offset %rbp, -16
	movq	%rsp, %rbp
	.cfi_def_cfa_register %rbp
	subq	$16, %rsp
	movq	%rdi, -8(%rbp)
	movq	-8(%rbp), %rdi
	addq	$16, %rdi
	callq	__ZNSt3__117__compressed_pairIPiNS_9allocatorIiEEE5firstEv
	addq	$16, %rsp
	popq	%rbp
	retq
	.cfi_endproc
                                        ## -- End function
	.p2align	4, 0x90         ## -- Begin function _ZNKSt3__16vectorIiNS_9allocatorIiEEE14__annotate_newEm
__ZNKSt3__16vectorIiNS_9allocatorIiEEE14__annotate_newEm: ## @_ZNKSt3__16vectorIiNS_9allocatorIiEEE14__annotate_newEm
	.cfi_startproc
## %bb.0:
	pushq	%rbp
	.cfi_def_cfa_offset 16
	.cfi_offset %rbp, -16
	movq	%rsp, %rbp
	.cfi_def_cfa_register %rbp
	subq	$64, %rsp
	movq	%rdi, -8(%rbp)
	movq	%rsi, -16(%rbp)
	movq	-8(%rbp), %rsi
	movq	%rsi, %rdi
	movq	%rsi, -24(%rbp)         ## 8-byte Spill
	callq	__ZNKSt3__16vectorIiNS_9allocatorIiEEE4dataEv
	movq	-24(%rbp), %rdi         ## 8-byte Reload
	movq	%rax, -32(%rbp)         ## 8-byte Spill
	callq	__ZNKSt3__16vectorIiNS_9allocatorIiEEE4dataEv
	movq	-24(%rbp), %rdi         ## 8-byte Reload
	movq	%rax, -40(%rbp)         ## 8-byte Spill
	callq	__ZNKSt3__16vectorIiNS_9allocatorIiEEE8capacityEv
	shlq	$2, %rax
	movq	-40(%rbp), %rsi         ## 8-byte Reload
	addq	%rax, %rsi
	movq	-24(%rbp), %rdi         ## 8-byte Reload
	movq	%rsi, -48(%rbp)         ## 8-byte Spill
	callq	__ZNKSt3__16vectorIiNS_9allocatorIiEEE4dataEv
	movq	-24(%rbp), %rdi         ## 8-byte Reload
	movq	%rax, -56(%rbp)         ## 8-byte Spill
	callq	__ZNKSt3__16vectorIiNS_9allocatorIiEEE8capacityEv
	shlq	$2, %rax
	movq	-56(%rbp), %rsi         ## 8-byte Reload
	addq	%rax, %rsi
	movq	-24(%rbp), %rdi         ## 8-byte Reload
	movq	%rsi, -64(%rbp)         ## 8-byte Spill
	callq	__ZNKSt3__16vectorIiNS_9allocatorIiEEE4dataEv
	movq	-16(%rbp), %rsi
	shlq	$2, %rsi
	addq	%rsi, %rax
	movq	-24(%rbp), %rdi         ## 8-byte Reload
	movq	-32(%rbp), %rsi         ## 8-byte Reload
	movq	-48(%rbp), %rdx         ## 8-byte Reload
	movq	-64(%rbp), %rcx         ## 8-byte Reload
	movq	%rax, %r8
	callq	__ZNKSt3__16vectorIiNS_9allocatorIiEEE31__annotate_contiguous_containerEPKvS5_S5_S5_
	addq	$64, %rsp
	popq	%rbp
	retq
	.cfi_endproc
                                        ## -- End function
	.p2align	4, 0x90         ## -- Begin function _ZNSt3__1L3minImEERKT_S3_S3_
__ZNSt3__1L3minImEERKT_S3_S3_:          ## @_ZNSt3__1L3minImEERKT_S3_S3_
	.cfi_startproc
## %bb.0:
	pushq	%rbp
	.cfi_def_cfa_offset 16
	.cfi_offset %rbp, -16
	movq	%rsp, %rbp
	.cfi_def_cfa_register %rbp
	subq	$32, %rsp
	movq	%rdi, -8(%rbp)
	movq	%rsi, -16(%rbp)
	movq	-8(%rbp), %rdi
	movq	-16(%rbp), %rsi
	callq	__ZNSt3__1L3minImNS_6__lessImmEEEERKT_S5_S5_T0_
	addq	$32, %rsp
	popq	%rbp
	retq
	.cfi_endproc
                                        ## -- End function
	.p2align	4, 0x90         ## -- Begin function _ZNSt3__116allocator_traitsINS_9allocatorIiEEE8max_sizeERKS2_
__ZNSt3__116allocator_traitsINS_9allocatorIiEEE8max_sizeERKS2_: ## @_ZNSt3__116allocator_traitsINS_9allocatorIiEEE8max_sizeERKS2_
	.cfi_startproc
## %bb.0:
	pushq	%rbp
	.cfi_def_cfa_offset 16
	.cfi_offset %rbp, -16
	movq	%rsp, %rbp
	.cfi_def_cfa_register %rbp
	subq	$32, %rsp
	movq	%rdi, -8(%rbp)
	movq	-8(%rbp), %rdi
	callq	__ZNSt3__116allocator_traitsINS_9allocatorIiEEE10__max_sizeENS_17integral_constantIbLb1EEERKS2_
	addq	$32, %rsp
	popq	%rbp
	retq
	.cfi_endproc
                                        ## -- End function
	.p2align	4, 0x90         ## -- Begin function _ZNKSt3__113__vector_baseIiNS_9allocatorIiEEE7__allocEv
__ZNKSt3__113__vector_baseIiNS_9allocatorIiEEE7__allocEv: ## @_ZNKSt3__113__vector_baseIiNS_9allocatorIiEEE7__allocEv
	.cfi_startproc
## %bb.0:
	pushq	%rbp
	.cfi_def_cfa_offset 16
	.cfi_offset %rbp, -16
	movq	%rsp, %rbp
	.cfi_def_cfa_register %rbp
	subq	$16, %rsp
	movq	%rdi, -8(%rbp)
	movq	-8(%rbp), %rdi
	addq	$16, %rdi
	callq	__ZNKSt3__117__compressed_pairIPiNS_9allocatorIiEEE6secondEv
	addq	$16, %rsp
	popq	%rbp
	retq
	.cfi_endproc
                                        ## -- End function
	.p2align	4, 0x90         ## -- Begin function _ZNSt3__114numeric_limitsIlE3maxEv
__ZNSt3__114numeric_limitsIlE3maxEv:    ## @_ZNSt3__114numeric_limitsIlE3maxEv
	.cfi_startproc
## %bb.0:
	pushq	%rbp
	.cfi_def_cfa_offset 16
	.cfi_offset %rbp, -16
	movq	%rsp, %rbp
	.cfi_def_cfa_register %rbp
	callq	__ZNSt3__123__libcpp_numeric_limitsIlLb1EE3maxEv
	popq	%rbp
	retq
	.cfi_endproc
                                        ## -- End function
	.p2align	4, 0x90         ## -- Begin function _ZNSt3__1L3minImNS_6__lessImmEEEERKT_S5_S5_T0_
__ZNSt3__1L3minImNS_6__lessImmEEEERKT_S5_S5_T0_: ## @_ZNSt3__1L3minImNS_6__lessImmEEEERKT_S5_S5_T0_
	.cfi_startproc
## %bb.0:
	pushq	%rbp
	.cfi_def_cfa_offset 16
	.cfi_offset %rbp, -16
	movq	%rsp, %rbp
	.cfi_def_cfa_register %rbp
	subq	$32, %rsp
	movq	%rdi, -16(%rbp)
	movq	%rsi, -24(%rbp)
	movq	-24(%rbp), %rsi
	movq	-16(%rbp), %rdx
	leaq	-8(%rbp), %rdi
	callq	__ZNKSt3__16__lessImmEclERKmS3_
	testb	$1, %al
	jne	LBB50_1
	jmp	LBB50_2
LBB50_1:
	movq	-24(%rbp), %rax
	movq	%rax, -32(%rbp)         ## 8-byte Spill
	jmp	LBB50_3
LBB50_2:
	movq	-16(%rbp), %rax
	movq	%rax, -32(%rbp)         ## 8-byte Spill
LBB50_3:
	movq	-32(%rbp), %rax         ## 8-byte Reload
	addq	$32, %rsp
	popq	%rbp
	retq
	.cfi_endproc
                                        ## -- End function
	.p2align	4, 0x90         ## -- Begin function _ZNKSt3__16__lessImmEclERKmS3_
__ZNKSt3__16__lessImmEclERKmS3_:        ## @_ZNKSt3__16__lessImmEclERKmS3_
	.cfi_startproc
## %bb.0:
	pushq	%rbp
	.cfi_def_cfa_offset 16
	.cfi_offset %rbp, -16
	movq	%rsp, %rbp
	.cfi_def_cfa_register %rbp
	movq	%rdi, -8(%rbp)
	movq	%rsi, -16(%rbp)
	movq	%rdx, -24(%rbp)
	movq	-16(%rbp), %rdx
	movq	(%rdx), %rdx
	movq	-24(%rbp), %rsi
	cmpq	(%rsi), %rdx
	setb	%al
	andb	$1, %al
	movzbl	%al, %eax
	popq	%rbp
	retq
	.cfi_endproc
                                        ## -- End function
	.p2align	4, 0x90         ## -- Begin function _ZNSt3__116allocator_traitsINS_9allocatorIiEEE10__max_sizeENS_17integral_constantIbLb1EEERKS2_
__ZNSt3__116allocator_traitsINS_9allocatorIiEEE10__max_sizeENS_17integral_constantIbLb1EEERKS2_: ## @_ZNSt3__116allocator_traitsINS_9allocatorIiEEE10__max_sizeENS_17integral_constantIbLb1EEERKS2_
	.cfi_startproc
## %bb.0:
	pushq	%rbp
	.cfi_def_cfa_offset 16
	.cfi_offset %rbp, -16
	movq	%rsp, %rbp
	.cfi_def_cfa_register %rbp
	subq	$16, %rsp
	movq	%rdi, -16(%rbp)
	movq	-16(%rbp), %rdi
	callq	__ZNKSt3__19allocatorIiE8max_sizeEv
	addq	$16, %rsp
	popq	%rbp
	retq
	.cfi_endproc
                                        ## -- End function
	.p2align	4, 0x90         ## -- Begin function _ZNKSt3__19allocatorIiE8max_sizeEv
__ZNKSt3__19allocatorIiE8max_sizeEv:    ## @_ZNKSt3__19allocatorIiE8max_sizeEv
	.cfi_startproc
## %bb.0:
	pushq	%rbp
	.cfi_def_cfa_offset 16
	.cfi_offset %rbp, -16
	movq	%rsp, %rbp
	.cfi_def_cfa_register %rbp
	movq	%rdi, -8(%rbp)
	movabsq	$4611686018427387903, %rax ## imm = 0x3FFFFFFFFFFFFFFF
	popq	%rbp
	retq
	.cfi_endproc
                                        ## -- End function
	.p2align	4, 0x90         ## -- Begin function _ZNKSt3__117__compressed_pairIPiNS_9allocatorIiEEE6secondEv
__ZNKSt3__117__compressed_pairIPiNS_9allocatorIiEEE6secondEv: ## @_ZNKSt3__117__compressed_pairIPiNS_9allocatorIiEEE6secondEv
	.cfi_startproc
## %bb.0:
	pushq	%rbp
	.cfi_def_cfa_offset 16
	.cfi_offset %rbp, -16
	movq	%rsp, %rbp
	.cfi_def_cfa_register %rbp
	subq	$16, %rsp
	movq	%rdi, -8(%rbp)
	movq	-8(%rbp), %rdi
	callq	__ZNKSt3__122__compressed_pair_elemINS_9allocatorIiEELi1ELb1EE5__getEv
	addq	$16, %rsp
	popq	%rbp
	retq
	.cfi_endproc
                                        ## -- End function
	.p2align	4, 0x90         ## -- Begin function _ZNKSt3__122__compressed_pair_elemINS_9allocatorIiEELi1ELb1EE5__getEv
__ZNKSt3__122__compressed_pair_elemINS_9allocatorIiEELi1ELb1EE5__getEv: ## @_ZNKSt3__122__compressed_pair_elemINS_9allocatorIiEELi1ELb1EE5__getEv
	.cfi_startproc
## %bb.0:
	pushq	%rbp
	.cfi_def_cfa_offset 16
	.cfi_offset %rbp, -16
	movq	%rsp, %rbp
	.cfi_def_cfa_register %rbp
	movq	%rdi, -8(%rbp)
	movq	-8(%rbp), %rdi
	movq	%rdi, %rax
	popq	%rbp
	retq
	.cfi_endproc
                                        ## -- End function
	.p2align	4, 0x90         ## -- Begin function _ZNSt3__123__libcpp_numeric_limitsIlLb1EE3maxEv
__ZNSt3__123__libcpp_numeric_limitsIlLb1EE3maxEv: ## @_ZNSt3__123__libcpp_numeric_limitsIlLb1EE3maxEv
	.cfi_startproc
## %bb.0:
	pushq	%rbp
	.cfi_def_cfa_offset 16
	.cfi_offset %rbp, -16
	movq	%rsp, %rbp
	.cfi_def_cfa_register %rbp
	movabsq	$9223372036854775807, %rax ## imm = 0x7FFFFFFFFFFFFFFF
	popq	%rbp
	retq
	.cfi_endproc
                                        ## -- End function
	.p2align	4, 0x90         ## -- Begin function _ZNSt3__19allocatorIiE8allocateEmPKv
__ZNSt3__19allocatorIiE8allocateEmPKv:  ## @_ZNSt3__19allocatorIiE8allocateEmPKv
	.cfi_startproc
## %bb.0:
	pushq	%rbp
	.cfi_def_cfa_offset 16
	.cfi_offset %rbp, -16
	movq	%rsp, %rbp
	.cfi_def_cfa_register %rbp
	subq	$32, %rsp
	movq	%rdi, -8(%rbp)
	movq	%rsi, -16(%rbp)
	movq	%rdx, -24(%rbp)
	movq	-8(%rbp), %rdi
	movq	-16(%rbp), %rdx
	movq	%rdx, -32(%rbp)         ## 8-byte Spill
	callq	__ZNKSt3__19allocatorIiE8max_sizeEv
	movq	-32(%rbp), %rdx         ## 8-byte Reload
	cmpq	%rax, %rdx
	jbe	LBB57_2
## %bb.1:
	leaq	L_.str(%rip), %rdi
	callq	__ZNSt3__1L20__throw_length_errorEPKc
LBB57_2:
	movl	$4, %eax
	movl	%eax, %esi
	movq	-16(%rbp), %rcx
	shlq	$2, %rcx
	movq	%rcx, %rdi
	callq	__ZNSt3__1L17__libcpp_allocateEmm
	addq	$32, %rsp
	popq	%rbp
	retq
	.cfi_endproc
                                        ## -- End function
	.p2align	4, 0x90         ## -- Begin function _ZNSt3__1L20__throw_length_errorEPKc
__ZNSt3__1L20__throw_length_errorEPKc:  ## @_ZNSt3__1L20__throw_length_errorEPKc
Lfunc_begin6:
	.cfi_startproc
	.cfi_personality 155, ___gxx_personality_v0
	.cfi_lsda 16, Lexception6
## %bb.0:
	pushq	%rbp
	.cfi_def_cfa_offset 16
	.cfi_offset %rbp, -16
	movq	%rsp, %rbp
	.cfi_def_cfa_register %rbp
	subq	$32, %rsp
	movq	%rdi, -8(%rbp)
	movl	$16, %eax
	movl	%eax, %edi
	callq	___cxa_allocate_exception
	movq	%rax, %rdi
	movq	-8(%rbp), %rsi
Ltmp28:
	movq	%rdi, -32(%rbp)         ## 8-byte Spill
	movq	%rax, %rdi
	callq	__ZNSt12length_errorC1EPKc
Ltmp29:
	jmp	LBB58_1
LBB58_1:
	movq	__ZTISt12length_error@GOTPCREL(%rip), %rsi
	movq	__ZNSt12length_errorD1Ev@GOTPCREL(%rip), %rdx
	movq	-32(%rbp), %rdi         ## 8-byte Reload
	callq	___cxa_throw
LBB58_2:
Ltmp30:
	movl	%edx, %ecx
	movq	%rax, -16(%rbp)
	movl	%ecx, -20(%rbp)
	movq	-32(%rbp), %rdi         ## 8-byte Reload
	callq	___cxa_free_exception
## %bb.3:
	movq	-16(%rbp), %rdi
	callq	__Unwind_Resume
	ud2
Lfunc_end6:
	.cfi_endproc
	.section	__TEXT,__gcc_except_tab
	.p2align	2
GCC_except_table58:
Lexception6:
	.byte	255                     ## @LPStart Encoding = omit
	.byte	255                     ## @TType Encoding = omit
	.byte	1                       ## Call site Encoding = uleb128
	.uleb128 Lcst_end6-Lcst_begin6
Lcst_begin6:
	.uleb128 Lfunc_begin6-Lfunc_begin6 ## >> Call Site 1 <<
	.uleb128 Ltmp28-Lfunc_begin6    ##   Call between Lfunc_begin6 and Ltmp28
	.byte	0                       ##     has no landing pad
	.byte	0                       ##   On action: cleanup
	.uleb128 Ltmp28-Lfunc_begin6    ## >> Call Site 2 <<
	.uleb128 Ltmp29-Ltmp28          ##   Call between Ltmp28 and Ltmp29
	.uleb128 Ltmp30-Lfunc_begin6    ##     jumps to Ltmp30
	.byte	0                       ##   On action: cleanup
	.uleb128 Ltmp29-Lfunc_begin6    ## >> Call Site 3 <<
	.uleb128 Lfunc_end6-Ltmp29      ##   Call between Ltmp29 and Lfunc_end6
	.byte	0                       ##     has no landing pad
	.byte	0                       ##   On action: cleanup
Lcst_end6:
	.p2align	2
                                        ## -- End function
	.section	__TEXT,__text,regular,pure_instructions
	.p2align	4, 0x90         ## -- Begin function _ZNSt3__1L17__libcpp_allocateEmm
__ZNSt3__1L17__libcpp_allocateEmm:      ## @_ZNSt3__1L17__libcpp_allocateEmm
	.cfi_startproc
## %bb.0:
	pushq	%rbp
	.cfi_def_cfa_offset 16
	.cfi_offset %rbp, -16
	movq	%rsp, %rbp
	.cfi_def_cfa_register %rbp
	subq	$16, %rsp
	movq	%rdi, -8(%rbp)
	movq	%rsi, -16(%rbp)
	movq	-8(%rbp), %rdi
	callq	__Znwm
	addq	$16, %rsp
	popq	%rbp
	retq
	.cfi_endproc
                                        ## -- End function
	.p2align	4, 0x90         ## -- Begin function _ZNSt12length_errorC1EPKc
__ZNSt12length_errorC1EPKc:             ## @_ZNSt12length_errorC1EPKc
	.cfi_startproc
## %bb.0:
	pushq	%rbp
	.cfi_def_cfa_offset 16
	.cfi_offset %rbp, -16
	movq	%rsp, %rbp
	.cfi_def_cfa_register %rbp
	subq	$16, %rsp
	movq	%rdi, -8(%rbp)
	movq	%rsi, -16(%rbp)
	movq	-8(%rbp), %rdi
	movq	-16(%rbp), %rsi
	callq	__ZNSt12length_errorC2EPKc
	addq	$16, %rsp
	popq	%rbp
	retq
	.cfi_endproc
                                        ## -- End function
	.p2align	4, 0x90         ## -- Begin function _ZNSt12length_errorC2EPKc
__ZNSt12length_errorC2EPKc:             ## @_ZNSt12length_errorC2EPKc
	.cfi_startproc
## %bb.0:
	pushq	%rbp
	.cfi_def_cfa_offset 16
	.cfi_offset %rbp, -16
	movq	%rsp, %rbp
	.cfi_def_cfa_register %rbp
	subq	$32, %rsp
	movq	%rdi, -8(%rbp)
	movq	%rsi, -16(%rbp)
	movq	-8(%rbp), %rsi
	movq	%rsi, %rdi
	movq	-16(%rbp), %rax
	movq	%rsi, -24(%rbp)         ## 8-byte Spill
	movq	%rax, %rsi
	callq	__ZNSt11logic_errorC2EPKc
	movq	__ZTVSt12length_error@GOTPCREL(%rip), %rax
	addq	$16, %rax
	movq	-24(%rbp), %rsi         ## 8-byte Reload
	movq	%rax, (%rsi)
	addq	$32, %rsp
	popq	%rbp
	retq
	.cfi_endproc
                                        ## -- End function
	.p2align	4, 0x90         ## -- Begin function _ZNSt3__117__compressed_pairIPiNS_9allocatorIiEEE5firstEv
__ZNSt3__117__compressed_pairIPiNS_9allocatorIiEEE5firstEv: ## @_ZNSt3__117__compressed_pairIPiNS_9allocatorIiEEE5firstEv
	.cfi_startproc
## %bb.0:
	pushq	%rbp
	.cfi_def_cfa_offset 16
	.cfi_offset %rbp, -16
	movq	%rsp, %rbp
	.cfi_def_cfa_register %rbp
	subq	$16, %rsp
	movq	%rdi, -8(%rbp)
	movq	-8(%rbp), %rdi
	callq	__ZNSt3__122__compressed_pair_elemIPiLi0ELb0EE5__getEv
	addq	$16, %rsp
	popq	%rbp
	retq
	.cfi_endproc
                                        ## -- End function
	.p2align	4, 0x90         ## -- Begin function _ZNSt3__122__compressed_pair_elemIPiLi0ELb0EE5__getEv
__ZNSt3__122__compressed_pair_elemIPiLi0ELb0EE5__getEv: ## @_ZNSt3__122__compressed_pair_elemIPiLi0ELb0EE5__getEv
	.cfi_startproc
## %bb.0:
	pushq	%rbp
	.cfi_def_cfa_offset 16
	.cfi_offset %rbp, -16
	movq	%rsp, %rbp
	.cfi_def_cfa_register %rbp
	movq	%rdi, -8(%rbp)
	movq	-8(%rbp), %rax
	popq	%rbp
	retq
	.cfi_endproc
                                        ## -- End function
	.p2align	4, 0x90         ## -- Begin function _ZNKSt3__16vectorIiNS_9allocatorIiEEE31__annotate_contiguous_containerEPKvS5_S5_S5_
__ZNKSt3__16vectorIiNS_9allocatorIiEEE31__annotate_contiguous_containerEPKvS5_S5_S5_: ## @_ZNKSt3__16vectorIiNS_9allocatorIiEEE31__annotate_contiguous_containerEPKvS5_S5_S5_
	.cfi_startproc
## %bb.0:
	pushq	%rbp
	.cfi_def_cfa_offset 16
	.cfi_offset %rbp, -16
	movq	%rsp, %rbp
	.cfi_def_cfa_register %rbp
	movq	%rdi, -8(%rbp)
	movq	%rsi, -16(%rbp)
	movq	%rdx, -24(%rbp)
	movq	%rcx, -32(%rbp)
	movq	%r8, -40(%rbp)
	popq	%rbp
	retq
	.cfi_endproc
                                        ## -- End function
	.p2align	4, 0x90         ## -- Begin function _ZNKSt3__16vectorIiNS_9allocatorIiEEE4dataEv
__ZNKSt3__16vectorIiNS_9allocatorIiEEE4dataEv: ## @_ZNKSt3__16vectorIiNS_9allocatorIiEEE4dataEv
	.cfi_startproc
## %bb.0:
	pushq	%rbp
	.cfi_def_cfa_offset 16
	.cfi_offset %rbp, -16
	movq	%rsp, %rbp
	.cfi_def_cfa_register %rbp
	subq	$16, %rsp
	movq	%rdi, -8(%rbp)
	movq	-8(%rbp), %rdi
	movq	(%rdi), %rdi
	callq	__ZNSt3__1L16__to_raw_pointerIiEEPT_S2_
	addq	$16, %rsp
	popq	%rbp
	retq
	.cfi_endproc
                                        ## -- End function
	.p2align	4, 0x90         ## -- Begin function _ZNKSt3__16vectorIiNS_9allocatorIiEEE8capacityEv
__ZNKSt3__16vectorIiNS_9allocatorIiEEE8capacityEv: ## @_ZNKSt3__16vectorIiNS_9allocatorIiEEE8capacityEv
	.cfi_startproc
## %bb.0:
	pushq	%rbp
	.cfi_def_cfa_offset 16
	.cfi_offset %rbp, -16
	movq	%rsp, %rbp
	.cfi_def_cfa_register %rbp
	subq	$16, %rsp
	movq	%rdi, -8(%rbp)
	movq	-8(%rbp), %rdi
	callq	__ZNKSt3__113__vector_baseIiNS_9allocatorIiEEE8capacityEv
	addq	$16, %rsp
	popq	%rbp
	retq
	.cfi_endproc
                                        ## -- End function
	.p2align	4, 0x90         ## -- Begin function _ZNSt3__16vectorIiNS_9allocatorIiEEE24__RAII_IncreaseAnnotatorC1ERKS3_m
__ZNSt3__16vectorIiNS_9allocatorIiEEE24__RAII_IncreaseAnnotatorC1ERKS3_m: ## @_ZNSt3__16vectorIiNS_9allocatorIiEEE24__RAII_IncreaseAnnotatorC1ERKS3_m
	.cfi_startproc
## %bb.0:
	pushq	%rbp
	.cfi_def_cfa_offset 16
	.cfi_offset %rbp, -16
	movq	%rsp, %rbp
	.cfi_def_cfa_register %rbp
	subq	$32, %rsp
	movq	%rdi, -8(%rbp)
	movq	%rsi, -16(%rbp)
	movq	%rdx, -24(%rbp)
	movq	-8(%rbp), %rdi
	movq	-16(%rbp), %rsi
	movq	-24(%rbp), %rdx
	callq	__ZNSt3__16vectorIiNS_9allocatorIiEEE24__RAII_IncreaseAnnotatorC2ERKS3_m
	addq	$32, %rsp
	popq	%rbp
	retq
	.cfi_endproc
                                        ## -- End function
	.p2align	4, 0x90         ## -- Begin function _ZNSt3__116allocator_traitsINS_9allocatorIiEEE9constructIiJEEEvRS2_PT_DpOT0_
__ZNSt3__116allocator_traitsINS_9allocatorIiEEE9constructIiJEEEvRS2_PT_DpOT0_: ## @_ZNSt3__116allocator_traitsINS_9allocatorIiEEE9constructIiJEEEvRS2_PT_DpOT0_
	.cfi_startproc
## %bb.0:
	pushq	%rbp
	.cfi_def_cfa_offset 16
	.cfi_offset %rbp, -16
	movq	%rsp, %rbp
	.cfi_def_cfa_register %rbp
	subq	$32, %rsp
	movq	%rdi, -8(%rbp)
	movq	%rsi, -16(%rbp)
	movq	-8(%rbp), %rdi
	movq	-16(%rbp), %rsi
	callq	__ZNSt3__116allocator_traitsINS_9allocatorIiEEE11__constructIiJEEEvNS_17integral_constantIbLb1EEERS2_PT_DpOT0_
	addq	$32, %rsp
	popq	%rbp
	retq
	.cfi_endproc
                                        ## -- End function
	.p2align	4, 0x90         ## -- Begin function _ZNSt3__16vectorIiNS_9allocatorIiEEE24__RAII_IncreaseAnnotator6__doneEv
__ZNSt3__16vectorIiNS_9allocatorIiEEE24__RAII_IncreaseAnnotator6__doneEv: ## @_ZNSt3__16vectorIiNS_9allocatorIiEEE24__RAII_IncreaseAnnotator6__doneEv
	.cfi_startproc
## %bb.0:
	pushq	%rbp
	.cfi_def_cfa_offset 16
	.cfi_offset %rbp, -16
	movq	%rsp, %rbp
	.cfi_def_cfa_register %rbp
	movq	%rdi, -8(%rbp)
	popq	%rbp
	retq
	.cfi_endproc
                                        ## -- End function
	.p2align	4, 0x90         ## -- Begin function _ZNSt3__16vectorIiNS_9allocatorIiEEE24__RAII_IncreaseAnnotatorC2ERKS3_m
__ZNSt3__16vectorIiNS_9allocatorIiEEE24__RAII_IncreaseAnnotatorC2ERKS3_m: ## @_ZNSt3__16vectorIiNS_9allocatorIiEEE24__RAII_IncreaseAnnotatorC2ERKS3_m
	.cfi_startproc
## %bb.0:
	pushq	%rbp
	.cfi_def_cfa_offset 16
	.cfi_offset %rbp, -16
	movq	%rsp, %rbp
	.cfi_def_cfa_register %rbp
	movq	%rdi, -8(%rbp)
	movq	%rsi, -16(%rbp)
	movq	%rdx, -24(%rbp)
	popq	%rbp
	retq
	.cfi_endproc
                                        ## -- End function
	.p2align	4, 0x90         ## -- Begin function _ZNSt3__116allocator_traitsINS_9allocatorIiEEE11__constructIiJEEEvNS_17integral_constantIbLb1EEERS2_PT_DpOT0_
__ZNSt3__116allocator_traitsINS_9allocatorIiEEE11__constructIiJEEEvNS_17integral_constantIbLb1EEERS2_PT_DpOT0_: ## @_ZNSt3__116allocator_traitsINS_9allocatorIiEEE11__constructIiJEEEvNS_17integral_constantIbLb1EEERS2_PT_DpOT0_
	.cfi_startproc
## %bb.0:
	pushq	%rbp
	.cfi_def_cfa_offset 16
	.cfi_offset %rbp, -16
	movq	%rsp, %rbp
	.cfi_def_cfa_register %rbp
	subq	$32, %rsp
	movq	%rdi, -16(%rbp)
	movq	%rsi, -24(%rbp)
	movq	-16(%rbp), %rdi
	movq	-24(%rbp), %rsi
	callq	__ZNSt3__19allocatorIiE9constructIiJEEEvPT_DpOT0_
	addq	$32, %rsp
	popq	%rbp
	retq
	.cfi_endproc
                                        ## -- End function
	.p2align	4, 0x90         ## -- Begin function _ZNSt3__19allocatorIiE9constructIiJEEEvPT_DpOT0_
__ZNSt3__19allocatorIiE9constructIiJEEEvPT_DpOT0_: ## @_ZNSt3__19allocatorIiE9constructIiJEEEvPT_DpOT0_
	.cfi_startproc
## %bb.0:
	pushq	%rbp
	.cfi_def_cfa_offset 16
	.cfi_offset %rbp, -16
	movq	%rsp, %rbp
	.cfi_def_cfa_register %rbp
	movq	%rdi, -8(%rbp)
	movq	%rsi, -16(%rbp)
	movq	-16(%rbp), %rsi
	movl	$0, (%rsi)
	popq	%rbp
	retq
	.cfi_endproc
                                        ## -- End function
	.p2align	4, 0x90         ## -- Begin function _ZNSt3__16vectorIiNS_9allocatorIiEEE11__make_iterEPi
__ZNSt3__16vectorIiNS_9allocatorIiEEE11__make_iterEPi: ## @_ZNSt3__16vectorIiNS_9allocatorIiEEE11__make_iterEPi
	.cfi_startproc
## %bb.0:
	pushq	%rbp
	.cfi_def_cfa_offset 16
	.cfi_offset %rbp, -16
	movq	%rsp, %rbp
	.cfi_def_cfa_register %rbp
	subq	$32, %rsp
	movq	%rdi, -16(%rbp)
	movq	%rsi, -24(%rbp)
	movq	-24(%rbp), %rsi
	leaq	-8(%rbp), %rdi
	callq	__ZNSt3__111__wrap_iterIPiEC1ES1_
	movq	-8(%rbp), %rax
	addq	$32, %rsp
	popq	%rbp
	retq
	.cfi_endproc
                                        ## -- End function
	.p2align	4, 0x90         ## -- Begin function _ZNSt3__111__wrap_iterIPiEC1ES1_
__ZNSt3__111__wrap_iterIPiEC1ES1_:      ## @_ZNSt3__111__wrap_iterIPiEC1ES1_
	.cfi_startproc
## %bb.0:
	pushq	%rbp
	.cfi_def_cfa_offset 16
	.cfi_offset %rbp, -16
	movq	%rsp, %rbp
	.cfi_def_cfa_register %rbp
	subq	$16, %rsp
	movq	%rdi, -8(%rbp)
	movq	%rsi, -16(%rbp)
	movq	-8(%rbp), %rdi
	movq	-16(%rbp), %rsi
	callq	__ZNSt3__111__wrap_iterIPiEC2ES1_
	addq	$16, %rsp
	popq	%rbp
	retq
	.cfi_endproc
                                        ## -- End function
	.p2align	4, 0x90         ## -- Begin function _ZNSt3__111__wrap_iterIPiEC2ES1_
__ZNSt3__111__wrap_iterIPiEC2ES1_:      ## @_ZNSt3__111__wrap_iterIPiEC2ES1_
	.cfi_startproc
## %bb.0:
	pushq	%rbp
	.cfi_def_cfa_offset 16
	.cfi_offset %rbp, -16
	movq	%rsp, %rbp
	.cfi_def_cfa_register %rbp
	movq	%rdi, -8(%rbp)
	movq	%rsi, -16(%rbp)
	movq	-8(%rbp), %rsi
	movq	-16(%rbp), %rdi
	movq	%rdi, (%rsi)
	popq	%rbp
	retq
	.cfi_endproc
                                        ## -- End function
	.p2align	4, 0x90         ## -- Begin function _ZNSt3__1eqIPiS1_EEbRKNS_11__wrap_iterIT_EERKNS2_IT0_EE
__ZNSt3__1eqIPiS1_EEbRKNS_11__wrap_iterIT_EERKNS2_IT0_EE: ## @_ZNSt3__1eqIPiS1_EEbRKNS_11__wrap_iterIT_EERKNS2_IT0_EE
	.cfi_startproc
## %bb.0:
	pushq	%rbp
	.cfi_def_cfa_offset 16
	.cfi_offset %rbp, -16
	movq	%rsp, %rbp
	.cfi_def_cfa_register %rbp
	subq	$32, %rsp
	movq	%rdi, -8(%rbp)
	movq	%rsi, -16(%rbp)
	movq	-8(%rbp), %rdi
	callq	__ZNKSt3__111__wrap_iterIPiE4baseEv
	movq	-16(%rbp), %rdi
	movq	%rax, -24(%rbp)         ## 8-byte Spill
	callq	__ZNKSt3__111__wrap_iterIPiE4baseEv
	movq	-24(%rbp), %rsi         ## 8-byte Reload
	cmpq	%rax, %rsi
	sete	%cl
	andb	$1, %cl
	movzbl	%cl, %eax
	addq	$32, %rsp
	popq	%rbp
	retq
	.cfi_endproc
                                        ## -- End function
	.p2align	4, 0x90         ## -- Begin function _ZNKSt3__111__wrap_iterIPiE4baseEv
__ZNKSt3__111__wrap_iterIPiE4baseEv:    ## @_ZNKSt3__111__wrap_iterIPiE4baseEv
	.cfi_startproc
## %bb.0:
	pushq	%rbp
	.cfi_def_cfa_offset 16
	.cfi_offset %rbp, -16
	movq	%rsp, %rbp
	.cfi_def_cfa_register %rbp
	movq	%rdi, -8(%rbp)
	movq	-8(%rbp), %rdi
	movq	(%rdi), %rax
	popq	%rbp
	retq
	.cfi_endproc
                                        ## -- End function
	.p2align	4, 0x90         ## -- Begin function _ZNKSt3__19basic_iosIcNS_11char_traitsIcEEE5widenEc
__ZNKSt3__19basic_iosIcNS_11char_traitsIcEEE5widenEc: ## @_ZNKSt3__19basic_iosIcNS_11char_traitsIcEEE5widenEc
Lfunc_begin7:
	.cfi_startproc
	.cfi_personality 155, ___gxx_personality_v0
	.cfi_lsda 16, Lexception7
## %bb.0:
	pushq	%rbp
	.cfi_def_cfa_offset 16
	.cfi_offset %rbp, -16
	movq	%rsp, %rbp
	.cfi_def_cfa_register %rbp
	subq	$64, %rsp
	movb	%sil, %al
	movq	%rdi, -8(%rbp)
	movb	%al, -9(%rbp)
	movq	-8(%rbp), %rsi
	leaq	-24(%rbp), %rdi
	movq	%rdi, -48(%rbp)         ## 8-byte Spill
	callq	__ZNKSt3__18ios_base6getlocEv
Ltmp31:
	movq	-48(%rbp), %rdi         ## 8-byte Reload
	callq	__ZNSt3__1L9use_facetINS_5ctypeIcEEEERKT_RKNS_6localeE
Ltmp32:
	movq	%rax, -56(%rbp)         ## 8-byte Spill
	jmp	LBB78_1
LBB78_1:
	movsbl	-9(%rbp), %esi
Ltmp33:
	movq	-56(%rbp), %rdi         ## 8-byte Reload
	callq	__ZNKSt3__15ctypeIcE5widenEc
Ltmp34:
	movb	%al, -57(%rbp)          ## 1-byte Spill
	jmp	LBB78_2
LBB78_2:
	leaq	-24(%rbp), %rdi
	callq	__ZNSt3__16localeD1Ev
	movb	-57(%rbp), %al          ## 1-byte Reload
	movsbl	%al, %eax
	addq	$64, %rsp
	popq	%rbp
	retq
LBB78_3:
Ltmp35:
	movl	%edx, %ecx
	movq	%rax, -32(%rbp)
	movl	%ecx, -36(%rbp)
	leaq	-24(%rbp), %rdi
	callq	__ZNSt3__16localeD1Ev
## %bb.4:
	movq	-32(%rbp), %rdi
	callq	__Unwind_Resume
	ud2
Lfunc_end7:
	.cfi_endproc
	.section	__TEXT,__gcc_except_tab
	.p2align	2
GCC_except_table78:
Lexception7:
	.byte	255                     ## @LPStart Encoding = omit
	.byte	255                     ## @TType Encoding = omit
	.byte	1                       ## Call site Encoding = uleb128
	.uleb128 Lcst_end7-Lcst_begin7
Lcst_begin7:
	.uleb128 Lfunc_begin7-Lfunc_begin7 ## >> Call Site 1 <<
	.uleb128 Ltmp31-Lfunc_begin7    ##   Call between Lfunc_begin7 and Ltmp31
	.byte	0                       ##     has no landing pad
	.byte	0                       ##   On action: cleanup
	.uleb128 Ltmp31-Lfunc_begin7    ## >> Call Site 2 <<
	.uleb128 Ltmp34-Ltmp31          ##   Call between Ltmp31 and Ltmp34
	.uleb128 Ltmp35-Lfunc_begin7    ##     jumps to Ltmp35
	.byte	0                       ##   On action: cleanup
	.uleb128 Ltmp34-Lfunc_begin7    ## >> Call Site 3 <<
	.uleb128 Lfunc_end7-Ltmp34      ##   Call between Ltmp34 and Lfunc_end7
	.byte	0                       ##     has no landing pad
	.byte	0                       ##   On action: cleanup
Lcst_end7:
	.p2align	2
                                        ## -- End function
	.section	__TEXT,__text,regular,pure_instructions
	.p2align	4, 0x90         ## -- Begin function _ZNSt3__1L9use_facetINS_5ctypeIcEEEERKT_RKNS_6localeE
__ZNSt3__1L9use_facetINS_5ctypeIcEEEERKT_RKNS_6localeE: ## @_ZNSt3__1L9use_facetINS_5ctypeIcEEEERKT_RKNS_6localeE
	.cfi_startproc
## %bb.0:
	pushq	%rbp
	.cfi_def_cfa_offset 16
	.cfi_offset %rbp, -16
	movq	%rsp, %rbp
	.cfi_def_cfa_register %rbp
	subq	$16, %rsp
	movq	__ZNSt3__15ctypeIcE2idE@GOTPCREL(%rip), %rsi
	movq	%rdi, -8(%rbp)
	movq	-8(%rbp), %rdi
	callq	__ZNKSt3__16locale9use_facetERNS0_2idE
	addq	$16, %rsp
	popq	%rbp
	retq
	.cfi_endproc
                                        ## -- End function
	.p2align	4, 0x90         ## -- Begin function _ZNKSt3__15ctypeIcE5widenEc
__ZNKSt3__15ctypeIcE5widenEc:           ## @_ZNKSt3__15ctypeIcE5widenEc
	.cfi_startproc
## %bb.0:
	pushq	%rbp
	.cfi_def_cfa_offset 16
	.cfi_offset %rbp, -16
	movq	%rsp, %rbp
	.cfi_def_cfa_register %rbp
	subq	$16, %rsp
	movb	%sil, %al
	movq	%rdi, -8(%rbp)
	movb	%al, -9(%rbp)
	movq	-8(%rbp), %rdi
	movb	-9(%rbp), %al
	movq	(%rdi), %rcx
	movsbl	%al, %esi
	callq	*56(%rcx)
	movsbl	%al, %eax
	addq	$16, %rsp
	popq	%rbp
	retq
	.cfi_endproc
                                        ## -- End function
	.section	__TEXT,__cstring,cstring_literals
L_.str:                                 ## @.str
	.asciz	"allocator<T>::allocate(size_t n) 'n' exceeds maximum supported size"


.subsections_via_symbols
